(dp1
I243940225
(lp2
cdatetime
datetime
p3
(S"\x07\xdd\x01\t\n\x0c'\x0b7\xd9"
tRp4
asI135636610
(lp5
g4
asI128924036
(lp6
g4
asI228311942
(lp7
g3
(S'\x07\xdd\x01\x11\x145\x01\x04)\xb0'
tRp8
asI134890503
(lp9
g4
asI608701577
(lp10
g4
asI1010510604
(lp11
g4
asI257593730
(lp12
g4
asI82287886
(lp13
g4
asI106514264
(lp14
g4
asI127693587
(lp15
g4
asI213493652
(lp16
g4
asI399731093
(lp17
g4
asI77451414
(lp18
g4
asI386276505
(lp19
g4
asI581708574
(lp20
g4
asI715098277
(lp21
g4
asI105335202
(lp22
g4
asI1107535141
(lp23
g3
(S'\x07\xdd\x01\x18\x0e#\x14\n\xae\x08'
tRp24
asI83201447
(lp25
g4
asI817960872
(lp26
g24
asI364254428
(lp27
g4
asI95580167
(lp28
g4
asI150070216
(lp29
g4
asI998394060
(lp30
g4
asI76926133
(lp31
g4
asI93274422
(lp32
g4
asI169195913
(lp33
g4
asI197893818
(lp34
g4
asI313852220
(lp35
g4
asI560508350
(lp36
g8
asI327744831
(lp37
g4
asI961227456
(lp38
g4
asI369793985
(lp39
g4
asI65948226
(lp40
g4
asI394147523
(lp41
g4
asI631687492
(lp42
g4
asI578679880
(lp43
g4
asI92196425
(lp44
g4
asI897433675
(lp45
g4
asI65229772
(lp46
g4
asI75877710
(lp47
g8
asI178049165
(lp48
g4
asI22691153
(lp49
g4
asI85473289
(lp50
g8
asI1110679382
(lp51
g24
asI219045207
(lp52
g4
asI387471704
(lp53
g4
asI383466460
(lp54
g24
asI104960478
(lp55
g4
asI145481125
(lp56
g4
asI86651873
(lp57
g4
asI38786407
(lp58
g4
asI1013573180
(lp59
g4
asI127147887
(lp60
g4
asI721324927
(lp61
g8
asI163951347
(lp62
g4
asI915815797
(lp63
g4
asI328690936
(lp64
g4
asI106632569
(lp65
g8
asI413664383
(lp66
g8
asI96691196
(lp67
g4
asI188178301
(lp68
g4
asI961784702
(lp69
g4
asI1012589516
(lp70
g4
as.