(dp1
I586022916
(lp2
cdatetime
datetime
p3
(S'\x07\xdd\x01\t\x0f\x18\x14\x04\x7f\xb2'
tRp4
asI73405968
(lp5
g4
asI452441617
(lp6
g4
asI566581785
(lp7
g4
asI135965735
(lp8
g4
asI82169384
(lp9
g4
asI300407850
(lp10
g3
(S'\x07\xdd\x01\x18\x0e\x15\x0c\x02\xe8\n'
tRp11
asI191143469
(lp12
g4
asI535424051
(lp13
g4
asI457006135
(lp14
g4
asI329031224
(lp15
g4
asI440189497
(lp16
g4
asI457691914
(lp17
g4
asI17152580
(lp18
g4
ag11
ag3
(S'\x07\xdd\x01\x19\x10\x05\x01\x08\xacm'
tRp19
asI141257797
(lp20
g4
asI49311302
(lp21
g4
asI374652999
(lp22
g4
asI566636625
(lp23
g4
asI207467603
(lp24
g4
asI150619732
(lp25
g4
asI167954517
(lp26
g4
asI845621346
(lp27
g4
asI101542501
(lp28
g4
ag3
(S'\x07\xdd\x01\x11\r2\x10\x06\xa8\xa7'
tRp29
ag11
ag19
asI149096042
(lp30
g4
asI149108332
(lp31
g4
asI257516657
(lp32
g4
asI707798144
(lp33
g4
asI370357893
(lp34
g29
asI1111900268
(lp35
g11
asI90740364
(lp36
g4
asI77845655
(lp37
g4
asI621102084
(lp38
g11
asI304425633
(lp39
g4
asI583163043
(lp40
g4
asI704745636
(lp41
g4
asI174684785
(lp42
g4
asI168146606
(lp43
g4
asI101269612
(lp44
g4
asI380533446
(lp45
g4
asI482242248
(lp46
g11
asI412712649
(lp47
g4
ag29
ag11
ag19
asI1022051540
(lp48
g4
ag11
ag19
asI152543013
(lp49
g4
asI259846889
(lp50
g4
asI982920433
(lp51
g29
asI315961589
(lp52
g4
asI855678198
(lp53
g29
asI1065476858
(lp54
g29
ag11
ag19
asI579754235
(lp55
g4
asI1046400259
(lp56
g4
ag29
ag11
ag19
asI158877962
(lp57
g4
asI545458477
(lp58
g4
asI1077585169
(lp59
g29
asI436615957
(lp60
g4
asI473093399
(lp61
g4
asI743780126
(lp62
g4
asI191863587
(lp63
g4
asI82412837
(lp64
g4
asI306906413
(lp65
g4
asI1087554350
(lp66
g29
asI439987507
(lp67
g4
asI356210486
(lp68
g4
asI223518011
(lp69
g4
asI579017545
(lp70
g4
asI74262347
(lp71
g29
ag11
ag19
asI215274828
(lp72
g11
asI202530873
(lp73
g4
asI149096291
(lp74
g4
asI191535972
(lp75
g4
asI295081324
(lp76
g4
asI392062320
(lp77
g4
asI1044692364
(lp78
g29
ag11
ag19
asI51372440
(lp79
g4
asI909190050
(lp80
g4
asI457060777
(lp81
g4
asI435101102
(lp82
g19
asI21136303
(lp83
g4
asI227063217
(lp84
g4
asI51241910
(lp85
g4
asI485971900
(lp86
g4
asI445072833
(lp87
g4
asI537502248
(lp88
g4
asI874352586
(lp89
g4
asI543792588
(lp90
g4
ag11
ag19
asI93271513
(lp91
g4
asI259689211
(lp92
g4
asI138104293
(lp93
g11
asI563170286
(lp94
g4
asI297282546
(lp95
g4
asI23224635
(lp96
g4
asI455611390
(lp97
g4
as.