(dp1
I478856192
(lp2
cdatetime
datetime
p3
(S'\x07\xdd\x01\x11\x105\x01\x0b\x9c\xe2'
tRp4
asI389218310
(lp5
g3
(S'\x07\xdd\x01\t\x0f$\x07\x00\xdd\xc8'
tRp6
asI373413896
(lp7
g6
asI578385929
(lp8
g6
asI43626512
(lp9
g6
asI12335122
(lp10
g6
asI213727252
(lp11
g6
ag4
asI11581462
(lp12
g6
asI73203740
(lp13
g6
asI130953247
(lp14
g6
asI14577701
(lp15
g6
asI63170225
(lp16
g6
asI39589897
(lp17
g6
asI21823532
(lp18
g6
asI25903153
(lp19
g6
asI15013938
(lp20
g6
asI170692659
(lp21
g6
asI183320631
(lp22
g6
asI124053560
(lp23
g6
asI15368250
(lp24
g6
asI150145086
(lp25
g6
asI16959556
(lp26
g6
asI355541062
(lp27
g6
asI486613063
(lp28
g6
asI383742035
(lp29
g6
asI14944341
(lp30
g6
asI802236504
(lp31
g6
asI12296282
(lp32
g6
asI226118671
(lp33
g6
asI267690081
(lp34
g6
asI377821290
(lp35
g6
asI526821483
(lp36
g6
asI110608493
(lp37
g6
asI5384302
(lp38
g6
asI121766004
(lp39
g6
asI36239479
(lp40
g6
asI355854462
(lp41
g6
asI20775039
(lp42
g6
asI35385475
(lp43
g6
asI34564229
(lp44
g6
asI420370113
(lp45
g6
asI29810825
(lp46
g6
asI146235530
(lp47
g6
asI31080602
(lp48
g6
asI33085599
(lp49
g6
asI14461090
(lp50
g6
asI21631146
(lp51
g6
asI169119917
(lp52
g6
asI854109896
(lp53
g4
asI280567987
(lp54
g6
asI421472441
(lp55
g6
asI412733632
(lp56
g6
asI571955398
(lp57
g6
asI1605831
(lp58
g6
asI252563658
(lp59
g6
asI34828492
(lp60
g6
asI57608397
(lp61
g6
asI460069075
(lp62
g6
asI636072313
(lp63
g6
asI57635039
(lp64
g6
asI17103073
(lp65
g6
asI274712803
(lp66
g6
asI161497318
(lp67
g6
asI26185961
(lp68
g6
asI247884010
(lp69
g6
asI92711149
(lp70
g6
asI14579415
(lp71
g6
asI222046450
(lp72
g6
asI404267253
(lp73
g6
asI431231223
(lp74
g6
asI23914752
(lp75
g6
asI16584961
(lp76
g6
asI16455941
(lp77
g6
asI192567559
(lp78
g6
asI55375575
(lp79
g6
asI228780301
(lp80
g6
asI13443342
(lp81
g6
asI14129427
(lp82
g6
ag4
asI441970965
(lp83
g6
ag4
asI20609308
(lp84
g6
asI15839517
(lp85
g6
asI724508958
(lp86
g6
asI57499936
(lp87
g6
asI370884315
(lp88
g6
asI346335527
(lp89
g6
asI25915690
(lp90
g6
asI19022127
(lp91
g6
asI166064436
(lp92
g6
asI19167544
(lp93
g4
asI12956042
(lp94
g6
asI314341900
(lp95
g6
asI366311745
(lp96
g6
asI14520642
(lp97
g6
asI39379275
(lp98
g6
asI116693329
(lp99
g6
asI368927061
(lp100
g6
asI487483108
(lp101
g6
asI24981850
(lp102
g6
asI18000316
(lp103
g6
asI334408029
(lp104
g6
asI14336356
(lp105
g6
asI560787815
(lp106
g6
ag4
asI306364779
(lp107
g6
asI257405293
(lp108
g6
ag4
asI378960243
(lp109
g6
asI48658494
(lp110
g6
asI285186425
(lp111
g6
asI14272892
(lp112
g6
asI241977727
(lp113
g6
asI604868993
(lp114
g6
asI115329411
(lp115
g4
asI625327885
(lp116
g6
asI50262406
(lp117
g6
asI992067978
(lp118
g6
asI2374031
(lp119
g6
asI40559000
(lp120
g6
asI20435347
(lp121
g6
asI368783768
(lp122
g6
asI542785945
(lp123
g6
asI719540634
(lp124
g6
asI7774622
(lp125
g6
asI425726369
(lp126
g6
asI53465508
(lp127
g6
asI14428584
(lp128
g6
asI33188268
(lp129
g6
asI28308893
(lp130
g6
asI459731378
(lp131
g6
asI17611192
(lp132
g6
asI258869692
(lp133
g6
asI159203775
(lp134
g6
asI45656513
(lp135
g6
asI268558786
(lp136
g6
asI14277059
(lp137
g6
asI353589701
(lp138
g6
asI805323
(lp139
g6
asI189540820
(lp140
g6
asI21199319
(lp141
g6
asI218627907
(lp142
g6
asI626336220
(lp143
g6
asI22917598
(lp144
g6
asI41654751
(lp145
g6
ag4
asI33931751
(lp146
g6
asI206283242
(lp147
g6
asI386857460
(lp148
g6
asI28908022
(lp149
g6
asI289564415
(lp150
g6
asI326380032
(lp151
g6
asI38218248
(lp152
g6
asI465295884
(lp153
g6
asI359513176
(lp154
g6
asI518978066
(lp155
g6
asI618191379
(lp156
g6
asI21584407
(lp157
g6
asI42326552
(lp158
g6
asI11270682
(lp159
g6
asI229533103
(lp160
g4
asI180048412
(lp161
g6
asI31123998
(lp162
g6
asI17746464
(lp163
g6
asI17187362
(lp164
g6
asI7660072
(lp165
g6
asI28112780
(lp166
g6
asI30011948
(lp167
g6
asI17324589
(lp168
g6
asI118749744
(lp169
g6
asI199344689
(lp170
g6
asI33804853
(lp171
g6
asI756014857
(lp172
g6
asI587532856
(lp173
g6
asI17136186
(lp174
g6
asI19036732
(lp175
g6
asI46144064
(lp176
g6
asI46561862
(lp177
g6
asI1735241
(lp178
g6
asI39881292
(lp179
g6
asI14072398
(lp180
g6
asI28668495
(lp181
g6
ag4
asI183333458
(lp182
g6
asI14152279
(lp183
g6
asI365685336
(lp184
g6
asI15380044
(lp185
g6
asI317164131
(lp186
g6
asI39930469
(lp187
g6
asI592190055
(lp188
g6
asI13590972
(lp189
g6
asI174172779
(lp190
g6
asI426832492
(lp191
g6
asI33837677
(lp192
g6
asI2890351
(lp193
g4
asI95220338
(lp194
g6
asI42226793
(lp195
g6
asI408715898
(lp196
g6
asI364413567
(lp197
g6
asI93002371
(lp198
g6
asI80523
(lp199
g6
asI16857743
(lp200
g6
asI7021202
(lp201
g6
asI431753877
(lp202
g6
asI832184983
(lp203
g6
ag4
asI14086808
(lp204
g6
asI108602019
(lp205
g6
asI10029732
(lp206
g6
asI1403561
(lp207
g6
asI356745898
(lp208
g6
asI377995952
(lp209
g6
asI603898551
(lp210
g6
asI253143740
(lp211
g6
asI664253
(lp212
g6
asI545964736
(lp213
g6
asI871620727
(lp214
g6
asI4266701
(lp215
g6
asI140198609
(lp216
g6
asI108159698
(lp217
g6
asI90716883
(lp218
g6
asI10990292
(lp219
g6
asI28500694
(lp220
g6
asI408242906
(lp221
g6
asI35695329
(lp222
g6
asI256408297
(lp223
g6
asI35763666
(lp224
g6
asI24836848
(lp225
g6
asI39609074
(lp226
g6
asI142408435
(lp227
g6
asI224633588
(lp228
g6
asI60854398
(lp229
g6
asI15289083
(lp230
g6
asI15434492
(lp231
g6
asI929880830
(lp232
g6
asI376916736
(lp233
g6
asI341058308
(lp234
g6
asI93956872
(lp235
g6
asI14998281
(lp236
g6
asI446566688
(lp237
g4
asI16419972
(lp238
g6
asI14320412
(lp239
g6
asI120560416
(lp240
g6
asI323867425
(lp241
g6
asI16935717
(lp242
g6
asI81507114
(lp243
g6
asI11551532
(lp244
g6
asI16534327
(lp245
g6
asI130695992
(lp246
g6
asI56169273
(lp247
g6
asI24759104
(lp248
g6
asI140024645
(lp249
g6
asI22939105
(lp250
g6
asI196504397
(lp251
g6
asI16511825
(lp252
g6
asI14060372
(lp253
g6
asI203037528
(lp254
g6
ag4
asI15221598
(lp255
g6
asI78414692
(lp256
g6
asI712876519
(lp257
g6
asI116108143
(lp258
g6
asI22301555
(lp259
g6
asI15526772
(lp260
g6
asI27044729
(lp261
g6
asI18201468
(lp262
g6
asI24960832
(lp263
g6
asI756767894
(lp264
g6
asI601054093
(lp265
g6
asI364428175
(lp266
g6
asI240006033
(lp267
g6
asI325343989
(lp268
g6
asI253029269
(lp269
g6
asI111207319
(lp270
g6
asI901585818
(lp271
g6
asI16040859
(lp272
g6
asI602872732
(lp273
g6
ag4
asI51663773
(lp274
g6
asI46039967
(lp275
g6
asI314590115
(lp276
g6
asI10716072
(lp277
g6
asI561173423
(lp278
g6
asI38329264
(lp279
g6
asI312712113
(lp280
g6
asI245404599
(lp281
g6
asI424354751
(lp282
g6
asI48944064
(lp283
g6
asI546759158
(lp284
g6
asI115231691
(lp285
g6
asI109646796
(lp286
g6
asI30632912
(lp287
g6
asI160148433
(lp288
g6
asI808565718
(lp289
g6
asI164615127
(lp290
g6
asI19450841
(lp291
g6
asI616868827
(lp292
g6
asI417467356
(lp293
g6
asI85734225
(lp294
g6
asI26047468
(lp295
g6
asI14468078
(lp296
g6
asI22053873
(lp297
g6
asI25136114
(lp298
g6
asI36156416
(lp299
g6
asI219442177
(lp300
g6
asI121433090
(lp301
g6
asI300514313
(lp302
g6
asI16483343
(lp303
g6
asI573606928
(lp304
g6
asI23653404
(lp305
g6
asI289033247
(lp306
g6
asI17050656
(lp307
g6
asI726748196
(lp308
g6
asI65711147
(lp309
g6
asI14939180
(lp310
g6
asI15459375
(lp311
g6
asI121347120
(lp312
g6
asI1383481
(lp313
g6
asI845841468
(lp314
g6
asI9654112
(lp315
g6
asI24919109
(lp316
g6
asI464133191
(lp317
g6
asI239463497
(lp318
g6
asI18703437
(lp319
g6
asI15402072
(lp320
g6
asI154836057
(lp321
g6
asI15518812
(lp322
g6
asI20511841
(lp323
g6
asI483667044
(lp324
g6
asI116511848
(lp325
g6
asI15019113
(lp326
g6
asI341927018
(lp327
g6
asI38730863
(lp328
g6
asI274162808
(lp329
g6
asI605310075
(lp330
g6
asI116679808
(lp331
g6
asI130485380
(lp332
g6
asI24736901
(lp333
g6
asI20345991
(lp334
g6
asI18943115
(lp335
g6
asI245545496
(lp336
g6
asI26539154
(lp337
g6
asI861793428
(lp338
g6
asI571016342
(lp339
g6
asI789402780
(lp340
g6
asI22766752
(lp341
g4
asI155196583
(lp342
g6
asI37471400
(lp343
g6
asI97516715
(lp344
g6
asI376444077
(lp345
g6
asI20137136
(lp346
g6
asI19029174
(lp347
g6
asI702393530
(lp348
g6
asI18123965
(lp349
g6
asI10642622
(lp350
g6
asI346361023
(lp351
g6
asI11023552
(lp352
g6
asI14425282
(lp353
g6
asI485088455
(lp354
g6
asI41405640
(lp355
g6
asI14159050
(lp356
g6
asI17017169
(lp357
g4
asI47699133
(lp358
g6
asI263730392
(lp359
g6
asI128781860
(lp360
g6
asI858860762
(lp361
g6
asI305902812
(lp362
g4
asI19131613
(lp363
g6
asI179336414
(lp364
g6
asI19895520
(lp365
g6
asI171197667
(lp366
g6
asI747498727
(lp367
g6
asI4625641
(lp368
g6
asI467008751
(lp369
g6
asI46240296
(lp370
g6
asI102127827
(lp371
g6
asI308878580
(lp372
g6
asI848921846
(lp373
g6
asI57013496
(lp374
g6
asI430134523
(lp375
g6
asI217443585
(lp376
g6
asI865342723
(lp377
g4
asI14834954
(lp378
g6
asI402539799
(lp379
g6
asI302195998
(lp380
g6
asI182451493
(lp381
g6
asI17497382
(lp382
g6
asI82732329
(lp383
g6
asI157400967
(lp384
g6
asI601339188
(lp385
g6
asI3382
(lp386
g6
asI336213304
(lp387
g6
asI14660924
(lp388
g6
asI355413311
(lp389
g6
asI295630150
(lp390
g6
asI15576391
(lp391
g6
asI107234633
(lp392
g6
asI49978699
(lp393
g4
asI14849357
(lp394
g6
asI393456975
(lp395
g6
ag4
asI7365972
(lp396
g6
asI15638074
(lp397
g6
asI14445920
(lp398
g6
asI135945569
(lp399
g6
asI863923554
(lp400
g6
asI491631971
(lp401
g6
asI813286
(lp402
g6
asI14325103
(lp403
g6
asI115411329
(lp404
g6
asI25683314
(lp405
g6
asI11855222
(lp406
g6
asI199347593
(lp407
g6
asI84909450
(lp408
g6
asI599279170
(lp409
g6
asI148071826
(lp410
g6
asI285496726
(lp411
g6
asI328631194
(lp412
g6
asI14458280
(lp413
g6
asI20254123
(lp414
g6
asI14362028
(lp415
g6
asI398189998
(lp416
g6
asI92016047
(lp417
g6
asI52243699
(lp418
g6
asI18964041
(lp419
g6
asI173768120
(lp420
g6
asI18273727
(lp421
g6
asI361326561
(lp422
g6
asI412747209
(lp423
g6
asI472827331
(lp424
g6
asI634891717
(lp425
g6
asI770411084
(lp426
g6
asI14544331
(lp427
g6
asI70352338
(lp428
g6
asI63187051
(lp429
g6
asI5916122
(lp430
g6
asI65586657
(lp431
g6
asI378955234
(lp432
g6
asI35218916
(lp433
g6
asI701324774
(lp434
g6
asI44408302
(lp435
g6
asI430885134
(lp436
g4
asI242073076
(lp437
g6
asI467709432
(lp438
g6
asI51043833
(lp439
g6
asI17882618
(lp440
g6
asI63923717
(lp441
g6
ag4
asI17090058
(lp442
g6
asI610161011
(lp443
g6
asI17450509
(lp444
g6
asI14054926
(lp445
g6
asI168666639
(lp446
g6
asI472399449
(lp447
g6
asI610489881
(lp448
g6
asI102993436
(lp449
g6
asI14849566
(lp450
g6
asI8834592
(lp451
g6
asI11560482
(lp452
g6
asI18132515
(lp453
g6
asI279279140
(lp454
g6
asI15408681
(lp455
g6
asI205755946
(lp456
g6
asI386721324
(lp457
g6
asI525420079
(lp458
g6
asI384472628
(lp459
g6
asI14136886
(lp460
g6
asI17399353
(lp461
g6
asI256626234
(lp462
g6
asI274732603
(lp463
g6
asI18648330
(lp464
g6
asI158772802
(lp465
g6
asI57376328
(lp466
g6
asI14847561
(lp467
g6
asI21661258
(lp468
g6
asI35352140
(lp469
g6
asI81184337
(lp470
g6
asI390858322
(lp471
g6
asI80877141
(lp472
g6
asI80008790
(lp473
g6
asI875298745
(lp474
g4
asI14986841
(lp475
g6
asI246398555
(lp476
g6
asI103089758
(lp477
g6
asI829194853
(lp478
g6
asI16264803
(lp479
g6
asI19007077
(lp480
g6
asI14689894
(lp481
g6
asI557844071
(lp482
g6
asI50232936
(lp483
g6
asI25790058
(lp484
g6
asI26226279
(lp485
g6
asI31436396
(lp486
g6
asI26285680
(lp487
g6
asI16596595
(lp488
g6
asI556633725
(lp489
g6
asI620045957
(lp490
g6
asI80389740
(lp491
g6
asI133312140
(lp492
g6
asI158764686
(lp493
g6
asI13012632
(lp494
g6
asI34094746
(lp495
g6
asI396854939
(lp496
g6
asI17467038
(lp497
g6
asI17849285
(lp498
g6
asI444331682
(lp499
g6
asI543293097
(lp500
g6
asI528592556
(lp501
g6
asI738916016
(lp502
g6
asI393776817
(lp503
g6
asI14062405
(lp504
g6
asI33656504
(lp505
g4
asI14847675
(lp506
g6
asI251299519
(lp507
g6
asI15386305
(lp508
g6
asI902098627
(lp509
g6
asI83795653
(lp510
g6
asI515380936
(lp511
g6
asI86855369
(lp512
g6
asI491376335
(lp513
g6
asI609347284
(lp514
g6
asI377792215
(lp515
g6
asI81546971
(lp516
g6
asI1317
(lp517
g6
asI67358433
(lp518
g6
asI498693858
(lp519
g6
asI393008812
(lp520
g6
asI336568036
(lp521
g6
asI220605734
(lp522
g6
asI185358059
(lp523
g6
asI28325612
(lp524
g6
asI15144685
(lp525
g6
asI210966254
(lp526
g6
asI31051389
(lp527
g6
asI10870512
(lp528
g6
asI61998838
(lp529
g6
asI374378233
(lp530
g6
asI557994282
(lp531
g4
asI13106942
(lp532
g6
asI14464767
(lp533
g6
asI16326409
(lp534
g6
asI1111821
(lp535
g6
asI73219858
(lp536
g6
asI173920019
(lp537
g6
asI232879065
(lp538
g6
asI12050202
(lp539
g6
asI17036420
(lp540
g4
asI601210660
(lp541
g6
asI1070581542
(lp542
g4
asI47580967
(lp543
g6
asI88153897
(lp544
g6
asI470531888
(lp545
g6
asI174692153
(lp546
g6
asI546768704
(lp547
g6
asI431859523
(lp548
g6
asI252823365
(lp549
g6
asI19288033
(lp550
g6
asI15980361
(lp551
g6
asI17073929
(lp552
g6
asI289767245
(lp553
g6
asI153040718
(lp554
g6
asI39282511
(lp555
g6
asI337321272
(lp556
g6
asI44171091
(lp557
g6
asI14315348
(lp558
g6
asI18093710
(lp559
g6
asI190351191
(lp560
g6
asI46944091
(lp561
g6
asI16580445
(lp562
g6
asI5660512
(lp563
g6
asI167509857
(lp564
g6
asI34758498
(lp565
g6
asI14946149
(lp566
g6
asI27529062
(lp567
g6
asI161228648
(lp568
g6
asI353566012
(lp569
g6
asI20779135
(lp570
g6
asI624609256
(lp571
g6
asI68917107
(lp572
g6
asI179122042
(lp573
g6
asI15013767
(lp574
g6
asI214665100
(lp575
g6
asI19181549
(lp576
g4
asI21185802
(lp577
g6
asI32034710
(lp578
g6
asI535914391
(lp579
g6
asI81162138
(lp580
g6
asI18522011
(lp581
g6
asI150200220
(lp582
g6
asI139435934
(lp583
g6
asI129763235
(lp584
g6
asI20864934
(lp585
g6
asI49266599
(lp586
g6
asI30289832
(lp587
g6
asI18808748
(lp588
g6
asI701867958
(lp589
g6
asI207943609
(lp590
g6
asI518098875
(lp591
g6
asI22411332
(lp592
g6
asI338001859
(lp593
g6
asI408524743
(lp594
g6
asI105910222
(lp595
g6
asI11069392
(lp596
g6
asI62760916
(lp597
g6
asI14335957
(lp598
g6
asI41586646
(lp599
g6
asI29569700
(lp600
g6
asI14061537
(lp601
g6
asI364423505
(lp602
g6
asI15220712
(lp603
g6
asI18456557
(lp604
g6
asI19648501
(lp605
g6
asI46096376
(lp606
g4
asI193030139
(lp607
g6
asI390088702
(lp608
g6
ag4
as.