(dp1
I120183972
(lp2
cdatetime
datetime
p3
(S"\x07\xdd\x01\t\n\x0c'\x0b7\xd9"
tRp4
asI957617257
(lp5
g4
asI11549642
(lp6
g4
asI274750412
(lp7
g4
asI71262160
(lp8
g4
asI22955060
(lp9
g4
asI354399766
(lp10
g4
asI27581466
(lp11
g4
asI36497565
(lp12
g4
asI608902878
(lp13
g4
as.