(dp1
I205799425
(lp2
cdatetime
datetime
p3
(S"\x07\xdd\x01\t\n\x0c'\x0b7\xd9"
tRp4
asI30924802
(lp5
g4
asI81633284
(lp6
g4
asI18849798
(lp7
g4
asI124043273
(lp8
g4
asI424394765
(lp9
g4
asI248864782
(lp10
g3
(S'\x07\xdd\x01\x16\x11\x18\x02\x0c\x87\x98'
tRp11
asI74711055
(lp12
g4
asI17907728
(lp13
g4
asI108421140
(lp14
g4
asI15491093
(lp15
g4
asI19578903
(lp16
g4
asI180961284
(lp17
g4
asI19750941
(lp18
g4
asI263208991
(lp19
g4
asI411197479
(lp20
g4
asI14721067
(lp21
g4
asI15261742
(lp22
g11
asI405823535
(lp23
g4
asI128163889
(lp24
g4
asI634765363
(lp25
g4
asI213991479
(lp26
g4
asI10575932
(lp27
g4
asI18833469
(lp28
g4
asI196837439
(lp29
g4
asI69001280
(lp30
g4
asI43065412
(lp31
g4
asI220799045
(lp32
g4
asI175857734
(lp33
g4
asI897433675
(lp34
g4
asI199139404
(lp35
g4
asI915136590
(lp36
g4
asI212222031
(lp37
g4
asI831619153
(lp38
g4
asI17300961
(lp39
g11
asI116834388
(lp40
g4
asI552050774
(lp41
g4
asI187408471
(lp42
g4
asI17883224
(lp43
g4
asI83329113
(lp44
g4
asI115318878
(lp45
g4
asI19505248
(lp46
g4
asI131989603
(lp47
g4
asI77725796
(lp48
g4
asI16045414
(lp49
g4
asI311238760
(lp50
g4
asI301940843
(lp51
g3
(S'\x07\xdd\x01\x11\r2\x10\x06\xa8\xa7'
tRp52
asI557146222
(lp53
g4
asI15745139
(lp54
g4
asI18055284
(lp55
g4
asI205935977
(lp56
g4
asI117268605
(lp57
g4
asI80650367
(lp58
g4
asI211124355
(lp59
g4
asI67805317
(lp60
g4
asI67141771
(lp61
g4
asI197574799
(lp62
g4
asI166584465
(lp63
g4
asI64118931
(lp64
g4
asI61456538
(lp65
g3
(S'\x07\xdd\x01\x18\r\x0b\r\x0b\x92m'
tRp66
asI28328097
(lp67
g4
asI6144162
(lp68
g4
asI107749539
(lp69
g4
asI192389293
(lp70
g4
asI107430062
(lp71
g4
asI137674928
(lp72
g4
asI705790130
(lp73
g4
asI262521013
(lp74
g4
asI31006902
(lp75
g4
asI156663994
(lp76
g4
asI40159637
(lp77
g4
asI956235991
(lp78
g4
asI17596638
(lp79
g4
asI15524064
(lp80
g4
asI15256188
(lp81
g4
asI6414562
(lp82
g4
asI17506531
(lp83
g4
asI161497318
(lp84
g4
asI198631656
(lp85
g4
asI259973353
(lp86
g4
asI518578410
(lp87
g4
asI17834220
(lp88
g4
asI190259442
(lp89
g4
asI109920500
(lp90
g4
asI281026806
(lp91
g4
asI170492152
(lp92
g4
asI15958265
(lp93
g4
asI41419003
(lp94
g4
asI15278335
(lp95
g4
asI193002198
(lp96
g4
asI154083596
(lp97
g4
asI36495634
(lp98
g4
asI42328340
(lp99
g4
asI39067925
(lp100
g4
asI97583382
(lp101
g4
asI969007387
(lp102
g66
asI1294621
(lp103
g4
asI242745631
(lp104
g4
asI71344418
(lp105
g4
asI15376678
(lp106
g4
asI117965095
(lp107
g4
asI206561576
(lp108
g4
asI476700973
(lp109
g4
asI17752368
(lp110
g4
asI459022645
(lp111
g4
asI17531192
(lp112
g4
asI381999839
(lp113
g4
asI38388028
(lp114
g4
asI141443391
(lp115
g4
asI981434689
(lp116
g11
asI819522
(lp117
g4
asI14803267
(lp118
g4
asI143638853
(lp119
g4
asI21700934
(lp120
g4
asI213172552
(lp121
g4
asI58631564
(lp122
g4
asI466657619
(lp123
g4
asI19177814
(lp124
g4
asI246103
(lp125
g4
asI14188889
(lp126
g4
asI145722086
(lp127
g4
asI133128555
(lp128
g4
asI446046572
(lp129
g4
asI57467245
(lp130
g4
asI126488637
(lp131
g4
asI14287221
(lp132
g4
asI14221686
(lp133
g4
asI1043456376
(lp134
g4
asI89571709
(lp135
g4
asI22233470
(lp136
g4
asI475160960
(lp137
g4
asI20660609
(lp138
g4
asI348127618
(lp139
g4
asI152789381
(lp140
g4
asI95953287
(lp141
g4
asI109986185
(lp142
g4
asI147898763
(lp143
g4
asI628662670
(lp144
g4
asI218636690
(lp145
g4
asI188670355
(lp146
g4
asI95715732
(lp147
g4
asI22258070
(lp148
g4
asI494299940
(lp149
g4
asI161718680
(lp150
g4
asI18104730
(lp151
g4
asI14135365
(lp152
g4
asI5683952
(lp153
g4
asI208273826
(lp154
g4
asI20332967
(lp155
g4
asI205898153
(lp156
g4
asI8077742
(lp157
g4
asI140883357
(lp158
g4
asI262332849
(lp159
g4
asI143532467
(lp160
g4
asI355434935
(lp161
g4
asI82616765
(lp162
g4
asI962765246
(lp163
g11
ag66
ag3
(S'\x07\xdd\x01\x18\x0e2\x02\x0cx\x94'
tRp164
asI794583487
(lp165
g4
asI211162528
(lp166
g4
asI14066114
(lp167
g4
asI475677127
(lp168
g4
asI15942088
(lp169
g4
asI196813257
(lp170
g4
asI249930190
(lp171
g4
asI37872080
(lp172
g4
asI985432530
(lp173
g4
asI30130643
(lp174
g4
asI222085588
(lp175
g4
asI84320725
(lp176
g4
asI297165276
(lp177
g4
asI31564255
(lp178
g4
asI20292065
(lp179
g4
asI401891810
(lp180
g4
asI9405862
(lp181
g4
asI9601512
(lp182
g4
asI17457642
(lp183
g4
asI8225262
(lp184
g4
asI379000232
(lp185
g4
asI91185652
(lp186
g4
asI279159285
(lp187
g4
asI347997609
(lp188
g4
asI143335928
(lp189
g4
asI83223036
(lp190
g4
asI280560127
(lp191
g4
asI114917890
(lp192
g4
asI99500551
(lp193
g4
asI432175362
(lp194
g4
asI198516823
(lp195
g4
asI305963532
(lp196
g4
asI107645698
(lp197
g4
ag52
ag11
asI17785358
(lp198
g4
asI47661584
(lp199
g4
asI173871192
(lp200
g4
asI41632274
(lp201
g4
asI17809940
(lp202
g4
asI159572502
(lp203
g4
asI14606873
(lp204
g4
asI136323611
(lp205
g4
asI42091039
(lp206
g4
asI1104781860
(lp207
g66
asI42656295
(lp208
g4
asI977437225
(lp209
g4
asI26493482
(lp210
g4
asI12866362
(lp211
g4
asI15737390
(lp212
g4
asI68198959
(lp213
g4
asI838841779
(lp214
g4
asI199959093
(lp215
g4
asI86139446
(lp216
g4
ag52
ag11
ag66
ag164
asI16251657
(lp217
g4
asI156353084
(lp218
g4
asI465437253
(lp219
g4
asI14549575
(lp220
g4
asI518709833
(lp221
g4
asI23519819
(lp222
g4
asI166347344
(lp223
g4
asI200909393
(lp224
g4
asI26436178
(lp225
g4
asI17900120
(lp226
g4
asI42549849
(lp227
g4
asI18809438
(lp228
g4
asI135348838
(lp229
g4
asI167346791
(lp230
g4
asI234848875
(lp231
g4
asI195666540
(lp232
g4
asI619782765
(lp233
g4
asI296411758
(lp234
g4
asI99033718
(lp235
g4
asI24224375
(lp236
g4
asI17670778
(lp237
g4
asI228917883
(lp238
g4
asI214205052
(lp239
g4
asI15614590
(lp240
g4
asI17810049
(lp241
g4
asI253215365
(lp242
g4
asI14205576
(lp243
g4
asI57189001
(lp244
g4
asI16089738
(lp245
g4
asI564306571
(lp246
g4
asI274604691
(lp247
g4
asI130925204
(lp248
g4
asI545325717
(lp249
g4
asI151970455
(lp250
g4
asI48661144
(lp251
g4
asI35005086
(lp252
g4
asI140376859
(lp253
g4
asI159154854
(lp254
g4
asI430441127
(lp255
g4
asI31466152
(lp256
g4
asI150940444
(lp257
g4
asI21906092
(lp258
g4
asI17070787
(lp259
g4
asI19047089
(lp260
g4
asI14090931
(lp261
g4
asI14320310
(lp262
g4
asI598876855
(lp263
g11
asI62309052
(lp264
g4
asI624960189
(lp265
g4
asI29278911
(lp266
g4
asI107201222
(lp267
g4
asI25854664
(lp268
g4
asI325313225
(lp269
g4
asI259826386
(lp270
g4
asI319603412
(lp271
g4
asI317973209
(lp272
g4
asI632087260
(lp273
g4
asI193454814
(lp274
g4
asI528007904
(lp275
g4
asI21734113
(lp276
g4
asI17785571
(lp277
g4
asI15909607
(lp278
g4
asI20161260
(lp279
g4
asI57115373
(lp280
g4
asI459064051
(lp281
g4
asI601460862
(lp282
g4
asI755950328
(lp283
g4
asI17867513
(lp284
g4
asI146162441
(lp285
g4
asI135422732
(lp286
g4
asI9585422
(lp287
g4
asI16244867
(lp288
g4
asI27640600
(lp289
g4
asI105345156
(lp290
g4
asI116482846
(lp291
g4
asI525984544
(lp292
g4
asI93812187
(lp293
g4
asI725738276
(lp294
g66
asI23192359
(lp295
g4
asI382157608
(lp296
g4
asI385721130
(lp297
g4
asI443065132
(lp298
g4
asI707191598
(lp299
g4
asI65594160
(lp300
g4
asI178704520
(lp301
g4
asI309780311
(lp302
g4
asI127253299
(lp303
g4
asI583710174
(lp304
g4
asI16933686
(lp305
g4
asI39772983
(lp306
g4
asI98689850
(lp307
g4
asI27231035
(lp308
g4
asI17392445
(lp309
g4
asI98607936
(lp310
g4
asI107141090
(lp311
g4
asI16720708
(lp312
g4
asI176120646
(lp313
g4
asI234857289
(lp314
g4
asI412468042
(lp315
g4
asI24601419
(lp316
g4
asI50701136
(lp317
g4
asI11633492
(lp318
g4
asI76136591
(lp319
g4
asI611771230
(lp320
g4
asI1221471
(lp321
g4
asI189301603
(lp322
g4
asI622404453
(lp323
g4
asI15450986
(lp324
g4
asI1007403883
(lp325
g4
asI194028399
(lp326
g4
asI182079905
(lp327
g4
asI26837875
(lp328
g4
asI15450996
(lp329
g4
asI20071285
(lp330
g4
asI15999865
(lp331
g4
ag52
ag11
ag66
ag164
asI18507505
(lp332
g4
asI754556
(lp333
g4
asI15254397
(lp334
g4
asI388268929
(lp335
g4
asI205529993
(lp336
g4
asI468657034
(lp337
g4
asI586589068
(lp338
g4
asI16130960
(lp339
g4
asI14443412
(lp340
g4
asI53560219
(lp341
g4
asI974193566
(lp342
g4
asI371901346
(lp343
g4
asI28410787
(lp344
g4
asI10716072
(lp345
g4
asI66626473
(lp346
g4
asI23100231
(lp347
g4
asI24503215
(lp348
g4
asI21676980
(lp349
g4
asI42394549
(lp350
g4
asI783180728
(lp351
g4
asI43475901
(lp352
g4
asI319783873
(lp353
g4
asI14631073
(lp354
g4
asI239363021
(lp355
g4
asI104452823
(lp356
g4
asI8217552
(lp357
g4
asI568927185
(lp358
g4
asI188597203
(lp359
g4
asI274498520
(lp360
g4
asI202712026
(lp361
g4
asI16868315
(lp362
g4
asI24495077
(lp363
g4
asI244818919
(lp364
g4
asI21398509
(lp365
g4
asI144303087
(lp366
g4
asI22643696
(lp367
g4
asI18318324
(lp368
g4
asI88540151
(lp369
g4
asI15303679
(lp370
g4
asI190563332
(lp371
g4
asI622806022
(lp372
g4
asI17466375
(lp373
g4
asI14640141
(lp374
g4
asI29802669
(lp375
g4
asI1038566418
(lp376
g4
asI17925141
(lp377
g4
asI15614998
(lp378
g4
asI16417816
(lp379
g4
asI1238041
(lp380
g4
asI142337053
(lp381
g4
asI499500063
(lp382
g4
asI45709656
(lp383
g4
asI393995302
(lp384
g4
asI30327848
(lp385
g4
asI16221225
(lp386
g4
asI14205994
(lp387
g4
asI85402667
(lp388
g4
asI21759021
(lp389
g4
asI38380590
(lp390
g4
asI157000752
(lp391
g4
asI19686449
(lp392
g4
asI19604531
(lp393
g4
asI96480094
(lp394
g4
asI399557686
(lp395
g4
asI190112826
(lp396
g4
asI104082271
(lp397
g4
asI200279103
(lp398
g4
asI894493760
(lp399
g4
ag52
ag11
asI99763265
(lp400
g4
asI565683266
(lp401
g4
asI17638467
(lp402
g4
asI14607430
(lp403
g4
asI126673991
(lp404
g4
asI134953186
(lp405
g4
asI170935370
(lp406
g4
asI395461711
(lp407
g4
asI87147602
(lp408
g4
asI190178387
(lp409
g4
asI20776020
(lp410
g4
asI318383192
(lp411
g4
asI47981658
(lp412
g4
asI286868576
(lp413
g4
asI237085793
(lp414
g4
asI81921126
(lp415
g4
asI208594023
(lp416
g4
asI177882217
(lp417
g4
asI199337066
(lp418
g4
asI490701933
(lp419
g4
asI18539631
(lp420
g4
asI117181705
(lp421
g4
asI122201204
(lp422
g4
asI123757687
(lp423
g4
asI17903807
(lp424
g4
asI55641214
(lp425
g4
asI217158903
(lp426
g4
asI318530691
(lp427
g4
asI14206085
(lp428
g4
asI16680071
(lp429
g4
asI22873226
(lp430
g4
asI17892492
(lp431
g4
asI174621838
(lp432
g4
asI570246288
(lp433
g4
asI213312657
(lp434
g4
asI21898387
(lp435
g4
asI179227428
(lp436
g4
asI514679960
(lp437
g4
asI10355872
(lp438
g4
asI747824293
(lp439
g52
asI21857452
(lp440
g4
asI188257894
(lp441
g4
asI429936840
(lp442
g4
asI14369971
(lp443
g4
asI15951028
(lp444
g4
asI124781752
(lp445
g4
asI370918587
(lp446
g4
asI54265022
(lp447
g4
asI63579329
(lp448
g4
asI14148802
(lp449
g4
asI18203844
(lp450
g4
asI492438728
(lp451
g4
asI338977993
(lp452
g4
asI483607754
(lp453
g4
asI18089164
(lp454
g4
asI16124792
(lp455
g4
asI15372495
(lp456
g4
asI937026780
(lp457
g4
asI400524509
(lp458
g4
asI18506975
(lp459
g4
asI193889504
(lp460
g4
asI16639213
(lp461
g4
asI962831604
(lp462
g4
asI102401270
(lp463
g4
asI18675241
(lp464
g4
asI130868475
(lp465
g4
asI14435580
(lp466
g4
asI89081091
(lp467
g4
asI40649989
(lp468
g4
asI27927817
(lp469
g4
asI7873802
(lp470
g4
asI15639821
(lp471
g4
asI13632782
(lp472
g4
asI135021846
(lp473
g4
asI885810458
(lp474
g4
asI31212830
(lp475
g4
asI65045791
(lp476
g4
asI106554657
(lp477
g4
asI168355110
(lp478
g4
asI42923569
(lp479
g4
asI22168877
(lp480
g4
asI135308591
(lp481
g4
asI575735088
(lp482
g4
asI178791730
(lp483
g4
asI32130358
(lp484
g4
asI1025341
(lp485
g4
asI162645312
(lp486
g4
asI46670048
(lp487
g4
asI16098626
(lp488
g4
asI366716233
(lp489
g4
asI25503051
(lp490
g66
asI364258638
(lp491
g4
asI193824079
(lp492
g4
asI171722068
(lp493
g4
asI18163032
(lp494
g4
asI204894436
(lp495
g4
asI176473434
(lp496
g4
asI129336667
(lp497
g4
asI151848285
(lp498
g4
asI20456799
(lp499
g4
asI604980579
(lp500
g4
asI381527399
(lp501
g4
asI14583144
(lp502
g4
asI14533997
(lp503
g4
asI16491888
(lp504
g4
asI71674744
(lp505
g4
asI9037172
(lp506
g4
asI224822646
(lp507
g4
asI395100393
(lp508
g4
asI26166652
(lp509
g4
asI48956797
(lp510
g4
asI20809087
(lp511
g4
asI217793921
(lp512
g4
asI593225096
(lp513
g4
asI73090441
(lp514
g4
asI17524108
(lp515
g4
asI36955534
(lp516
g4
asI71165327
(lp517
g4
asI592062019
(lp518
g4
asI567027100
(lp519
g4
asI177030560
(lp520
g4
asI181364134
(lp521
g4
asI233907625
(lp522
g4
asI15721898
(lp523
g4
asI77725938
(lp524
g4
asI268954525
(lp525
g4
asI17737138
(lp526
g4
asI27469250
(lp527
g4
asI331441603
(lp528
g4
asI147727812
(lp529
g4
asI186017221
(lp530
g4
asI611182022
(lp531
g4
asI40371655
(lp532
g4
asI21202376
(lp533
g4
asI442852815
(lp534
g4
asI10626512
(lp535
g4
asI15009243
(lp536
g4
asI14304739
(lp537
g4
asI195659236
(lp538
g4
asI60319205
(lp539
g4
asI194332138
(lp540
g4
asI515163628
(lp541
g11
asI15742514
(lp542
g4
asI25085425
(lp543
g4
asI36496884
(lp544
g52
asI167421437
(lp545
g4
asI268871168
(lp546
g4
asI29828612
(lp547
g4
asI92505605
(lp548
g4
asI234931718
(lp549
g4
asI45090312
(lp550
g4
asI297764361
(lp551
g4
asI2737751
(lp552
g4
asI27969044
(lp553
g4
ag66
ag164
asI191702549
(lp554
g4
asI32629751
(lp555
g4
asI257656344
(lp556
g4
asI86509083
(lp557
g4
asI14976542
(lp558
g4
asI19367458
(lp559
g4
asI17475108
(lp560
g4
asI23078437
(lp561
g4
asI21759526
(lp562
g4
asI165172828
(lp563
g4
asI116999724
(lp564
g4
asI18966061
(lp565
g4
asI24454711
(lp566
g52
asI536278279
(lp567
g4
asI25781824
(lp568
g4
asI194184771
(lp569
g4
asI192611908
(lp570
g4
asI87418438
(lp571
g4
asI75589192
(lp572
g4
asI69207626
(lp573
g4
asI43113771
(lp574
g4
asI118049721
(lp575
g4
asI119178841
(lp576
g4
asI76154458
(lp577
g4
asI106948188
(lp578
g4
asI248415846
(lp579
g4
asI22783590
(lp580
g4
asI35767916
(lp581
g4
asI138888813
(lp582
g4
asI937502322
(lp583
g52
ag11
ag66
ag164
asI201901683
(lp584
g4
asI183117429
(lp585
g4
asI15565076
(lp586
g4
asI18073211
(lp587
g4
asI39437948
(lp588
g4
asI516687489
(lp589
g4
asI461780587
(lp590
g4
asI15894149
(lp591
g4
asI36975453
(lp592
g4
asI302286477
(lp593
g4
asI1056474768
(lp594
g4
asI246351506
(lp595
g4
asI119875220
(lp596
g4
asI1688
(lp597
g4
asI16632772
(lp598
g4
asI196896411
(lp599
g4
asI491447964
(lp600
g4
asI208414369
(lp601
g4
asI66537123
(lp602
g4
asI838403754
(lp603
g4
asI573819847
(lp604
g4
asI22292146
(lp605
g4
asI539231859
(lp606
g4
asI19089077
(lp607
g4
asI97781430
(lp608
g4
asI55027388
(lp609
g4
asI17370058
(lp610
g4
asI136406719
(lp611
g4
asI55371458
(lp612
g4
asI21415619
(lp613
g4
asI14886596
(lp614
g4
asI17008328
(lp615
g4
asI264070862
(lp616
g4
asI17041106
(lp617
g4
asI14632661
(lp618
g4
asI146515670
(lp619
g4
asI595953372
(lp620
g4
asI14411485
(lp621
g4
asI128698079
(lp622
g4
asI279160549
(lp623
g4
asI4073191
(lp624
g4
asI199780074
(lp625
g4
asI15140589
(lp626
g4
asI271050478
(lp627
g4
asI207062767
(lp628
g4
asI154411304
(lp629
g4
asI42182388
(lp630
g4
asI33359605
(lp631
g4
asI23135992
(lp632
g4
asI19490555
(lp633
g4
asI26412800
(lp634
g4
asI14354179
(lp635
g4
asI15605402
(lp636
g4
asI18892551
(lp637
g4
asI9840392
(lp638
g4
asI24798988
(lp639
g4
asI152356621
(lp640
g4
asI27633423
(lp641
g4
asI77211409
(lp642
g4
asI55928594
(lp643
g4
asI74712855
(lp644
g4
asI15451934
(lp645
g4
asI275572511
(lp646
g4
asI930285344
(lp647
g4
asI2361121
(lp648
g4
asI833603365
(lp649
g4
asI283371302
(lp650
g4
asI217483047
(lp651
g4
asI542852906
(lp652
g4
asI802375477
(lp653
g4
asI93841207
(lp654
g4
asI26928955
(lp655
g4
asI110782268
(lp656
g4
asI89622334
(lp657
g4
asI159237951
(lp658
g4
asI15337280
(lp659
g4
asI187688769
(lp660
g4
asI574498628
(lp661
g4
asI194955084
(lp662
g4
asI732915535
(lp663
g4
asI17024849
(lp664
g4
asI490637140
(lp665
g4
ag52
ag11
ag66
ag164
asI43067223
(lp666
g4
asI184537403
(lp667
g4
asI10397542
(lp668
g4
asI247834471
(lp669
g4
asI158426988
(lp670
g4
asI110484852
(lp671
g4
asI82716534
(lp672
g4
asI14993272
(lp673
g4
asI16464398
(lp674
g4
asI76416892
(lp675
g4
asI42665853
(lp676
g4
asI25372542
(lp677
g4
asI557066115
(lp678
g4
asI869001092
(lp679
g11
asI240527238
(lp680
g4
asI17713036
(lp681
g4
asI18693101
(lp682
g4
asI8814482
(lp683
g4
asI48785299
(lp684
g4
asI344516501
(lp685
g4
asI84699037
(lp686
g4
asI21161888
(lp687
g4
asI134072225
(lp688
g4
asI771647395
(lp689
g4
asI193167686
(lp690
g4
asI290572199
(lp691
g4
asI1089300392
(lp692
g66
asI16230316
(lp693
g4
asI557942704
(lp694
g4
asI15763379
(lp695
g4
asI44074935
(lp696
g4
asI903628728
(lp697
g4
asI133670847
(lp698
g4
asI239920801
(lp699
g4
asI149440457
(lp700
g4
asI187623370
(lp701
g4
asI75622347
(lp702
g4
asI2533331
(lp703
g4
asI227125207
(lp704
g4
asI288311257
(lp705
g4
asI223938525
(lp706
g4
asI14821347
(lp707
g4
asI39995364
(lp708
g4
asI125331429
(lp709
g4
asI16787430
(lp710
g4
asI92014567
(lp711
g4
asI432187369
(lp712
g4
asI14092266
(lp713
g4
asI14346219
(lp714
g4
asI159819761
(lp715
g4
asI1007495154
(lp716
g11
ag66
ag164
asI449439731
(lp717
g4
asI59295732
(lp718
g4
asI36530165
(lp719
g4
asI293963769
(lp720
g4
asI193030139
(lp721
g4
asI486008829
(lp722
g4
asI21719039
(lp723
g4
asI218155014
(lp724
g4
asI186058759
(lp725
g4
asI489424904
(lp726
g4
asI68302508
(lp727
g4
asI123504650
(lp728
g4
asI203008016
(lp729
g4
asI187344913
(lp730
g4
asI74917911
(lp731
g4
asI276957209
(lp732
g4
asI379160602
(lp733
g4
asI490661916
(lp734
g4
ag11
ag66
ag164
asI36816927
(lp735
g4
asI211044384
(lp736
g4
asI43681825
(lp737
g4
asI13396002
(lp738
g4
asI14428195
(lp739
g4
asI18565158
(lp740
g4
asI116992044
(lp741
g4
asI225994418
(lp742
g4
asI199378994
(lp743
g4
asI188663859
(lp744
g4
asI495274036
(lp745
g4
asI31492153
(lp746
g4
asI154667067
(lp747
g4
asI52742205
(lp748
g4
asI57190069
(lp749
g4
asI75368515
(lp750
g4
asI224749238
(lp751
g4
asI994273800
(lp752
g66
asI1001498695
(lp753
g4
asI135120971
(lp754
g4
ag52
ag11
ag66
ag164
asI206071884
(lp755
g4
asI35735629
(lp756
g4
asI970156111
(lp757
g4
asI19511386
(lp758
g4
asI361850965
(lp759
g4
asI27412566
(lp760
g4
asI199125082
(lp761
g4
asI274843739
(lp762
g11
asI14248033
(lp763
g4
asI168872039
(lp764
g4
asI548767853
(lp765
g4
asI27109486
(lp766
g4
asI204302447
(lp767
g4
asI602119187
(lp768
g4
asI177211508
(lp769
g4
asI55642231
(lp770
g4
asI16148602
(lp771
g4
asI211634299
(lp772
g4
asI196475500
(lp773
g4
asI194414725
(lp774
g4
asI44361863
(lp775
g4
asI22276232
(lp776
g4
asI20283756
(lp777
g4
asI163145867
(lp778
g4
asI172796045
(lp779
g4
asI10383
(lp780
g4
asI23709845
(lp781
g4
asI273787031
(lp782
g4
asI29304984
(lp783
g52
asI23251100
(lp784
g4
asI85919905
(lp785
g4
asI31459491
(lp786
g4
asI152127655
(lp787
g4
asI56600745
(lp788
g4
asI5417132
(lp789
g4
asI713238704
(lp790
g4
asI472655560
(lp791
g4
asI8521912
(lp792
g4
asI958113980
(lp793
g4
asI160721085
(lp794
g4
asI463308992
(lp795
g4
asI333842625
(lp796
g4
asI13119862
(lp797
g4
asI134457542
(lp798
g4
asI16443593
(lp799
g4
asI607856845
(lp800
g66
asI131999950
(lp801
g4
asI193349841
(lp802
g4
asI15207459
(lp803
g4
asI14526679
(lp804
g4
asI28543195
(lp805
g4
asI25536732
(lp806
g4
asI130083044
(lp807
g4
asI22235371
(lp808
g4
asI1074211052
(lp809
g11
asI17393362
(lp810
g4
asI18196721
(lp811
g4
asI205367539
(lp812
g4
asI14469368
(lp813
g4
asI14928123
(lp814
g4
asI20523260
(lp815
g4
asI15755519
(lp816
g4
asI15280385
(lp817
g4
asI52128005
(lp818
g4
asI18858078
(lp819
g4
asI260909325
(lp820
g4
asI256960793
(lp821
g4
asI22464794
(lp822
g4
asI49785115
(lp823
g4
asI79587615
(lp824
g4
asI952396064
(lp825
g4
asI34793761
(lp826
g4
asI183380260
(lp827
g4
asI19925290
(lp828
g4
asI137464107
(lp829
g4
asI117246252
(lp830
g4
asI261744941
(lp831
g4
asI289024302
(lp832
g4
asI387328303
(lp833
g4
asI240396594
(lp834
g11
asI25532522
(lp835
g4
asI96207241
(lp836
g4
asI612075837
(lp837
g4
asI414298507
(lp838
g4
asI16083270
(lp839
g4
asI174467401
(lp840
g4
asI280947023
(lp841
g4
asI108333392
(lp842
g4
asI23341395
(lp843
g4
asI21694807
(lp844
g4
asI165102517
(lp845
g4
asI184985946
(lp846
g4
asI333867357
(lp847
g4
asI107240435
(lp848
g4
asI59173218
(lp849
g4
asI24750436
(lp850
g4
asI129132901
(lp851
g4
asI14633321
(lp852
g4
asI19384683
(lp853
g4
asI257024402
(lp854
g4
asI10971502
(lp855
g4
asI139323760
(lp856
g4
asI80472433
(lp857
g4
asI599435643
(lp858
g4
asI495126908
(lp859
g4
asI11417322
(lp860
g4
asI621111679
(lp861
g4
asI33057154
(lp862
g4
asI17779075
(lp863
g4
asI141527434
(lp864
g4
asI147949965
(lp865
g4
asI266373518
(lp866
g4
asI17352429
(lp867
g4
asI237252705
(lp868
g4
asI197157272
(lp869
g4
asI217549203
(lp870
g4
asI521734549
(lp871
g4
asI174975389
(lp872
g4
asI192203167
(lp873
g4
asI44160571
(lp874
g4
asI24963491
(lp875
g4
asI61245861
(lp876
g4
asI598960551
(lp877
g4
asI92539305
(lp878
g4
asI400148907
(lp879
g4
asI3533231
(lp880
g4
asI343566768
(lp881
g4
asI1101993716
(lp882
g11
asI110897594
(lp883
g4
asI633842107
(lp884
g4
asI18000316
(lp885
g4
asI180398525
(lp886
g4
asI17828295
(lp887
g4
asI97307083
(lp888
g4
asI8454562
(lp889
g4
asI12536272
(lp890
g4
asI331991509
(lp891
g4
asI109717974
(lp892
g4
asI120043258
(lp893
g4
asI426543583
(lp894
g4
asI20924898
(lp895
g4
asI9718252
(lp896
g4
asI35484180
(lp897
g4
asI351693299
(lp898
g4
asI398223862
(lp899
g4
asI26929655
(lp900
g4
asI10718322
(lp901
g4
asI17345021
(lp902
g4
asI15854078
(lp903
g4
asI463112704
(lp904
g4
asI20187649
(lp905
g4
asI785680898
(lp906
g52
asI224004614
(lp907
g4
asI991373832
(lp908
g4
asI18038375
(lp909
g4
asI90155533
(lp910
g4
asI114551313
(lp911
g4
asI194587158
(lp912
g4
asI184543773
(lp913
g4
asI231008798
(lp914
g4
asI203016735
(lp915
g4
asI14895651
(lp916
g4
asI26585636
(lp917
g4
asI138759916
(lp918
g4
asI17156646
(lp919
g4
asI16466353
(lp920
g4
asI18188847
(lp921
g4
asI16688904
(lp922
g4
asI244746802
(lp923
g4
asI43485748
(lp924
g4
asI207178294
(lp925
g4
asI95328848
(lp926
g4
asI17779259
(lp927
g4
asI468027964
(lp928
g4
asI399149632
(lp929
g4
asI1019185729
(lp930
g4
asI32188995
(lp931
g4
asI16943688
(lp932
g4
asI19745353
(lp933
g4
asI30673492
(lp934
g4
asI45935190
(lp935
g4
asI121293399
(lp936
g4
asI470699108
(lp937
g4
asI24578650
(lp938
g4
asI234490460
(lp939
g4
asI94407262
(lp940
g4
asI11242082
(lp941
g4
asI42846820
(lp942
g4
asI42639815
(lp943
g4
asI2666
(lp944
g4
asI174172779
(lp945
g4
asI24291951
(lp946
g4
asI27216496
(lp947
g4
asI459483761
(lp948
g4
asI15826025
(lp949
g4
asI127650424
(lp950
g4
asI195013241
(lp951
g4
asI11668092
(lp952
g4
asI197962366
(lp953
g4
asI179980928
(lp954
g4
asI177093228
(lp955
g4
asI125512325
(lp956
g4
asI194873993
(lp957
g4
asI252791434
(lp958
g4
asI15472407
(lp959
g4
asI205843084
(lp960
g4
asI137349776
(lp961
g4
asI228698769
(lp962
g4
asI8260242
(lp963
g52
asI191230403
(lp964
g4
asI14120729
(lp965
g4
asI47155867
(lp966
g4
asI27110048
(lp967
g4
asI15059619
(lp968
g4
asI10029732
(lp969
g4
asI24332965
(lp970
g4
asI376302246
(lp971
g4
asI14912625
(lp972
g4
asI114972444
(lp973
g4
asI14101162
(lp974
g4
asI321596075
(lp975
g4
asI19916488
(lp976
g4
asI404695725
(lp977
g4
asI389450416
(lp978
g4
asI17074868
(lp979
g4
asI30722741
(lp980
g4
asI506645174
(lp981
g4
asI771353274
(lp982
g4
asI106171067
(lp983
g4
asI41188469
(lp984
g4
asI213199555
(lp985
g4
asI285428420
(lp986
g4
asI165578529
(lp987
g4
asI856214647
(lp988
g4
asI21850829
(lp989
g4
asI141372112
(lp990
g4
asI38079186
(lp991
g4
asI42625752
(lp992
g4
asI130927321
(lp993
g4
asI405825317
(lp994
g4
asI27845072
(lp995
g4
asI39004898
(lp996
g4
asI18369254
(lp997
g4
asI19032807
(lp998
g4
asI17369836
(lp999
g4
asI150809325
(lp1000
g4
asI39817169
(lp1001
g4
asI73214704
(lp1002
g4
asI28134130
(lp1003
g4
asI96791042
(lp1004
g4
asI201555277
(lp1005
g4
asI48638717
(lp1006
g4
asI176089854
(lp1007
g4
asI20179712
(lp1008
g4
asI89361154
(lp1009
g4
asI19041034
(lp1010
g4
asI174598923
(lp1011
g4
asI14617357
(lp1012
g4
asI135654159
(lp1013
g4
asI55315217
(lp1014
g4
asI986671891
(lp1015
g4
asI74771220
(lp1016
g4
asI484797205
(lp1017
g4
asI24537879
(lp1018
g4
asI18148120
(lp1019
g4
asI90704666
(lp1020
g4
asI108369589
(lp1021
g4
asI21990172
(lp1022
g4
asI200248093
(lp1023
g4
asI271239966
(lp1024
g4
asI315992864
(lp1025
g4
asI74713890
(lp1026
g4
asI615099171
(lp1027
g4
asI140405540
(lp1028
g4
asI14166821
(lp1029
g4
asI192858920
(lp1030
g4
asI18049840
(lp1031
g4
asI31273438
(lp1032
g4
asI961809206
(lp1033
g4
asI140036920
(lp1034
g4
asI161006047
(lp1035
g4
asI166243134
(lp1036
g4
asI71600961
(lp1037
g4
asI402500418
(lp1038
g4
asI400296773
(lp1039
g4
asI191037921
(lp1040
g4
asI146967369
(lp1041
g4
asI31304523
(lp1042
g4
asI43723599
(lp1043
g4
asI599329617
(lp1044
g4
asI14060372
(lp1045
g4
asI204335962
(lp1046
g4
asI26921822
(lp1047
g4
asI32197471
(lp1048
g4
asI198626145
(lp1049
g4
asI15412070
(lp1050
g4
asI705940327
(lp1051
g4
asI253004653
(lp1052
g4
asI15264624
(lp1053
g4
asI63769457
(lp1054
g4
asI202778430
(lp1055
g4
asI377359224
(lp1056
g4
asI16526202
(lp1057
g4
asI115493756
(lp1058
g4
asI127806337
(lp1059
g4
asI159553048
(lp1060
g4
asI39103370
(lp1061
g4
asI195545995
(lp1062
g4
asI151120781
(lp1063
g4
asI327437198
(lp1064
g4
asI5417872
(lp1065
g4
asI263859089
(lp1066
g4
asI284658580
(lp1067
g4
asI14781333
(lp1068
g4
asI475474840
(lp1069
g4
asI288074652
(lp1070
g4
asI98470813
(lp1071
g4
asI44444579
(lp1072
g4
asI212036517
(lp1073
g4
asI709708710
(lp1074
g4
asI220466090
(lp1075
g4
asI198421420
(lp1076
g4
asI307817389
(lp1077
g4
asI24071325
(lp1078
g4
asI14328274
(lp1079
g4
asI21801907
(lp1080
g4
asI53472182
(lp1081
g4
asI14262772
(lp1082
g52
asI19286970
(lp1083
g4
asI15985600
(lp1084
g4
asI884943810
(lp1085
g4
asI32836548
(lp1086
g4
asI868584391
(lp1087
g4
asI466512842
(lp1088
g4
asI17165259
(lp1089
g4
asI13798562
(lp1090
g4
asI69413839
(lp1091
g4
asI16657364
(lp1092
g4
asI202697685
(lp1093
g4
asI125930456
(lp1094
g4
asI819407833
(lp1095
g4
asI323521502
(lp1096
g4
asI24005599
(lp1097
g4
asI335735779
(lp1098
g52
ag11
ag66
ag164
asI854256612
(lp1099
g11
asI164285413
(lp1100
g4
asI552528870
(lp1101
g4
asI167454545
(lp1102
g4
asI225067516
(lp1103
g4
asI89885679
(lp1104
g4
asI14347252
(lp1105
g4
ag52
ag11
ag66
ag164
asI218254325
(lp1106
g4
asI17166167
(lp1107
g4
asI294405972
(lp1108
g4
asI133860350
(lp1109
g4
asI61524996
(lp1110
g4
asI1051020294
(lp1111
g4
asI563661838
(lp1112
g4
asI57682960
(lp1113
g4
asI23989269
(lp1114
g4
asI858745878
(lp1115
g4
asI587770904
(lp1116
g4
asI46615577
(lp1117
g4
asI3849391
(lp1118
g4
asI289033247
(lp1119
g52
asI195447843
(lp1120
g4
asI33168561
(lp1121
g4
asI92130344
(lp1122
g4
asI1108006958
(lp1123
g11
asI119004338
(lp1124
g4
asI27962414
(lp1125
g4
asI901188656
(lp1126
g4
asI68938804
(lp1127
g4
asI55274676
(lp1128
g4
asI14650426
(lp1129
g4
asI14838845
(lp1130
g4
asI788253758
(lp1131
g4
asI117569376
(lp1132
g4
asI199614987
(lp1133
g4
asI11725892
(lp1134
g4
asI34587148
(lp1135
g4
asI143744183
(lp1136
g4
asI162532430
(lp1137
g4
asI48057427
(lp1138
g4
asI30313557
(lp1139
g4
asI200756409
(lp1140
g4
asI96152665
(lp1141
g4
asI237022305
(lp1142
g4
asI194948194
(lp1143
g4
asI183258299
(lp1144
g4
asI14937188
(lp1145
g4
asI36357990
(lp1146
g4
asI887999593
(lp1147
g4
asI83364972
(lp1148
g4
asI443608174
(lp1149
g4
asI97487983
(lp1150
g4
asI120745073
(lp1151
g4
asI59485298
(lp1152
g4
asI932981876
(lp1153
g4
asI836562037
(lp1154
g4
asI90803319
(lp1155
g4
asI303885433
(lp1156
g4
asI346361023
(lp1157
g4
asI13167742
(lp1158
g4
asI15248514
(lp1159
g4
asI17004395
(lp1160
g4
asI16419972
(lp1161
g4
asI22880790
(lp1162
g4
asI534563976
(lp1163
g4
asI72502410
(lp1164
g4
asI16886925
(lp1165
g4
asI17018005
(lp1166
g4
asI40291482
(lp1167
g4
asI19478383
(lp1168
g4
asI200813725
(lp1169
g4
asI68164805
(lp1170
g4
asI17837216
(lp1171
g4
asI6794402
(lp1172
g4
asI20117361
(lp1173
g4
asI382094504
(lp1174
g4
asI17214633
(lp1175
g4
asI625585322
(lp1176
g4
asI14806188
(lp1177
g4
asI367553709
(lp1178
g4
asI872647860
(lp1179
g4
asI204909750
(lp1180
g4
asI14212297
(lp1181
g4
asI456453305
(lp1182
g4
asI331959483
(lp1183
g4
asI176647357
(lp1184
g4
asI29174974
(lp1185
g4
asI43642047
(lp1186
g4
asI485035202
(lp1187
g4
asI240495813
(lp1188
g4
asI78589126
(lp1189
g4
asI23661767
(lp1190
g4
asI20810952
(lp1191
g4
asI92376269
(lp1192
g4
asI193318094
(lp1193
g4
asI809307343
(lp1194
g4
asI133926100
(lp1195
g4
asI814293
(lp1196
g4
asI220818647
(lp1197
g4
asI15568089
(lp1198
g4
asI607005915
(lp1199
g4
asI10235102
(lp1200
g4
asI242420960
(lp1201
g4
asI126676194
(lp1202
g4
asI326511843
(lp1203
g4
asI141323492
(lp1204
g4
asI434588903
(lp1205
g4
asI132377834
(lp1206
g4
asI22957295
(lp1207
g4
asI15764723
(lp1208
g4
asI133024142
(lp1209
g4
asI40720843
(lp1210
g4
asI378801405
(lp1211
g4
asI194555136
(lp1212
g4
asI18691968
(lp1213
g4
asI159649030
(lp1214
g4
asI17091847
(lp1215
g4
asI570240265
(lp1216
g4
asI20188434
(lp1217
g4
asI252947737
(lp1218
g4
asI7277852
(lp1219
g4
asI15322397
(lp1220
g4
asI67988769
(lp1221
g4
asI313879845
(lp1222
g4
asI379235622
(lp1223
g4
asI206236968
(lp1224
g4
asI6114602
(lp1225
g4
asI16493868
(lp1226
g4
asI370822455
(lp1227
g4
asI580390200
(lp1228
g4
asI25190487
(lp1229
g4
asI18058556
(lp1230
g4
asI123948351
(lp1231
g4
asI23891264
(lp1232
g4
asI385830211
(lp1233
g4
asI29966902
(lp1234
g4
asI52251979
(lp1235
g4
asI195378402
(lp1236
g4
asI84438350
(lp1237
g4
asI31460691
(lp1238
g4
asI144010582
(lp1239
g4
asI961310041
(lp1240
g4
asI14265692
(lp1241
g4
asI195300701
(lp1242
g4
asI29379934
(lp1243
g4
asI197307743
(lp1244
g4
asI143396195
(lp1245
g4
asI17984868
(lp1246
g4
asI91213157
(lp1247
g4
asI57945451
(lp1248
g4
asI14724464
(lp1249
g4
asI39693681
(lp1250
g4
asI41291124
(lp1251
g4
asI10923382
(lp1252
g4
asI131566968
(lp1253
g4
asI24991636
(lp1254
g4
asI247762298
(lp1255
g4
ag11
ag66
asI17608059
(lp1256
g4
asI470943637
(lp1257
g4
asI351874434
(lp1258
g4
asI186371463
(lp1259
g4
asI271846793
(lp1260
g4
asI6655372
(lp1261
g4
asI70520206
(lp1262
g4
asI142716306
(lp1263
g4
asI104156565
(lp1264
g4
asI107294102
(lp1265
g4
asI597429655
(lp1266
g4
asI52866287
(lp1267
g4
asI586001820
(lp1268
g4
asI331115935
(lp1269
g4
asI18042278
(lp1270
g4
asI621424044
(lp1271
g4
asI139324845
(lp1272
g4
asI274935214
(lp1273
g4
asI213388531
(lp1274
g4
asI83488180
(lp1275
g4
asI451685816
(lp1276
g4
asI159661907
(lp1277
g4
asI209137083
(lp1278
g4
asI148508093
(lp1279
g4
asI47623616
(lp1280
g4
asI204477003
(lp1281
g4
asI61321026
(lp1282
g4
asI14392123
(lp1283
g4
asI95292874
(lp1284
g4
asI57142731
(lp1285
g4
asI26283471
(lp1286
g4
asI84028882
(lp1287
g4
asI17444309
(lp1288
g4
asI178466266
(lp1289
g4
asI798846427
(lp1290
g4
asI15871452
(lp1291
g4
asI12160482
(lp1292
g4
asI25065717
(lp1293
g4
asI755991121
(lp1294
g4
asI199822824
(lp1295
g4
asI193318377
(lp1296
g4
asI749686254
(lp1297
g66
asI74501615
(lp1298
g4
asI790000
(lp1299
g4
asI282879912
(lp1300
g4
asI94850548
(lp1301
g4
asI216919545
(lp1302
g4
asI219999738
(lp1303
g4
asI140496382
(lp1304
g4
asI16248319
(lp1305
g4
asI401870337
(lp1306
g4
asI241167877
(lp1307
g4
asI393592065
(lp1308
g4
asI549441035
(lp1309
g4
asI204836367
(lp1310
g4
asI32673296
(lp1311
g4
asI35163668
(lp1312
g4
asI350408214
(lp1313
g4
asI57888279
(lp1314
g4
asI336055832
(lp1315
g4
asI230395423
(lp1316
g4
asI201641504
(lp1317
g4
asI204887984
(lp1318
g4
asI24055334
(lp1319
g4
asI119684359
(lp1320
g4
asI421187117
(lp1321
g4
asI185806382
(lp1322
g4
asI14224944
(lp1323
g4
asI22734907
(lp1324
g4
asI14451294
(lp1325
g4
asI19803702
(lp1326
g4
asI359444023
(lp1327
g4
asI118156857
(lp1328
g4
asI106425914
(lp1329
g4
asI39824955
(lp1330
g4
asI41291327
(lp1331
g4
asI75133536
(lp1332
g4
asI14085700
(lp1333
g4
asI781895
(lp1334
g4
asI14495304
(lp1335
g4
asI435990091
(lp1336
g4
asI75648589
(lp1337
g4
asI430452305
(lp1338
g4
asI57175065
(lp1339
g4
asI123686487
(lp1340
g4
asI106721892
(lp1341
g4
asI418991709
(lp1342
g4
asI17591905
(lp1343
g4
asI826429026
(lp1344
g4
asI70004324
(lp1345
g4
asI152014438
(lp1346
g4
asI516510311
(lp1347
g4
asI312176237
(lp1348
g4
asI41479790
(lp1349
g4
asI553791093
(lp1350
g4
asI209153657
(lp1351
g4
asI233631354
(lp1352
g4
asI591490683
(lp1353
g4
asI34573948
(lp1354
g4
asI32681599
(lp1355
g4
asI114339456
(lp1356
g4
asI304008834
(lp1357
g4
asI517230216
(lp1358
g4
asI222638700
(lp1359
g4
asI248344204
(lp1360
g4
asI28167824
(lp1361
g4
asI282168978
(lp1362
g4
asI14470803
(lp1363
g4
asI44313
(lp1364
g4
asI13012632
(lp1365
g4
asI143052441
(lp1366
g4
asI112479899
(lp1367
g4
asI12504732
(lp1368
g4
asI577245577
(lp1369
g4
asI126062241
(lp1370
g4
asI472190630
(lp1371
g4
asI18656540
(lp1372
g4
asI462360238
(lp1373
g4
asI339938991
(lp1374
g4
asI58044082
(lp1375
g4
asI5975732
(lp1376
g4
asI28372661
(lp1377
g4
asI14847675
(lp1378
g4
asI247049916
(lp1379
g4
asI6409922
(lp1380
g4
asI1322691
(lp1381
g4
asI58019527
(lp1382
g4
asI854109896
(lp1383
g4
asI117807052
(lp1384
g4
asI164835021
(lp1385
g4
asI17051344
(lp1386
g4
asI181776081
(lp1387
g4
asI136654548
(lp1388
g4
asI155979477
(lp1389
g4
asI14757591
(lp1390
g4
asI341642968
(lp1391
g4
asI40824537
(lp1392
g4
asI57175772
(lp1393
g4
asI338063070
(lp1394
g4
asI42609957
(lp1395
g4
asI8785632
(lp1396
g4
asI197684961
(lp1397
g4
asI173387492
(lp1398
g4
asI132353765
(lp1399
g4
asI65400551
(lp1400
g4
asI144584427
(lp1401
g4
asI108908268
(lp1402
g4
asI266718957
(lp1403
g4
asI405819122
(lp1404
g4
asI35868407
(lp1405
g4
asI234106619
(lp1406
g4
asI3840
(lp1407
g4
ag52
ag11
ag66
ag164
asI19246850
(lp1408
g4
asI76230403
(lp1409
g4
asI185593604
(lp1410
g4
asI27791109
(lp1411
g4
asI7433992
(lp1412
g4
asI15781642
(lp1413
g4
asI59879180
(lp1414
g4
asI30641933
(lp1415
g4
asI21367183
(lp1416
g4
asI316632855
(lp1417
g4
asI107646745
(lp1418
g4
asI14282523
(lp1419
g4
asI318705439
(lp1420
g4
ag52
ag11
ag66
ag164
asI18231072
(lp1421
g4
asI635694883
(lp1422
g4
asI559591207
(lp1423
g4
asI21507883
(lp1424
g4
asI510537518
(lp1425
g4
asI15314736
(lp1426
g4
asI19279665
(lp1427
g4
asI97750840
(lp1428
g4
asI114208570
(lp1429
g4
asI156921662
(lp1430
g4
asI21442370
(lp1431
g4
asI24891210
(lp1432
g4
asI192712524
(lp1433
g11
asI14454605
(lp1434
g4
asI91836238
(lp1435
g4
asI61050704
(lp1436
g4
asI71470929
(lp1437
g4
asI64325603
(lp1438
g4
asI190754647
(lp1439
g4
asI28675932
(lp1440
g4
asI348663646
(lp1441
g4
asI9654112
(lp1442
g4
asI14585698
(lp1443
g4
asI476172132
(lp1444
g4
asI36368231
(lp1445
g4
asI489279338
(lp1446
g4
asI152424299
(lp1447
g4
asI18386797
(lp1448
g4
asI183289525
(lp1449
g4
asI278835058
(lp1450
g4
asI37831315
(lp1451
g4
asI64368500
(lp1452
g4
asI18280312
(lp1453
g4
asI341593978
(lp1454
g4
asI315002750
(lp1455
g4
asI582258562
(lp1456
g4
asI226561929
(lp1457
g4
asI75124620
(lp1458
g4
asI224631899
(lp1459
g4
asI18993161
(lp1460
g4
asI184151958
(lp1461
g4
asI426274717
(lp1462
g4
asI564662174
(lp1463
g4
asI210300832
(lp1464
g4
asI27439013
(lp1465
g4
asI15814566
(lp1466
g4
asI75573233
(lp1467
g4
asI206024618
(lp1468
g4
asI352756212
(lp1469
g4
asI80121774
(lp1470
g4
asI21351094
(lp1471
g4
asI203567025
(lp1472
g4
asI256208818
(lp1473
g4
asI133984183
(lp1474
g4
asI370356158
(lp1475
g4
asI122466242
(lp1476
g4
asI298086347
(lp1477
g4
asI223301580
(lp1478
g4
asI20140706
(lp1479
g4
asI386109391
(lp1480
g4
asI192401360
(lp1481
g4
asI177185201
(lp1482
g4
asI18313170
(lp1483
g4
asI33222611
(lp1484
g4
asI134655956
(lp1485
g4
asI419639256
(lp1486
g4
asI252536239
(lp1487
g4
asI63590376
(lp1488
g4
asI86683627
(lp1489
g4
asI19181549
(lp1490
g4
asI10670062
(lp1491
g4
asI24864765
(lp1492
g4
asI496431784
(lp1493
g4
asI211800056
(lp1494
g4
asI16134137
(lp1495
g4
asI11644922
(lp1496
g4
asI720678908
(lp1497
g4
asI63008770
(lp1498
g4
asI41586693
(lp1499
g4
asI68857862
(lp1500
g4
asI203061249
(lp1501
g4
asI274567177
(lp1502
g4
asI60772365
(lp1503
g4
asI111390734
(lp1504
g4
asI13662722
(lp1505
g4
asI27340822
(lp1506
g4
asI44961816
(lp1507
g4
asI185633278
(lp1508
g4
asI16584730
(lp1509
g4
asI24735775
(lp1510
g4
asI184995872
(lp1511
g4
asI38055971
(lp1512
g4
asI131246086
(lp1513
g11
asI29904935
(lp1514
g4
asI892342316
(lp1515
g52
asI8523822
(lp1516
g4
asI2576431
(lp1517
g4
asI79638576
(lp1518
g4
asI12337
(lp1519
g4
asI21168607
(lp1520
g4
asI230133818
(lp1521
g4
asI100757565
(lp1522
g4
asI139776062
(lp1523
g4
asI269709375
(lp1524
g4
asI14626880
(lp1525
g4
asI53073931
(lp1526
g4
asI46207045
(lp1527
g4
asI506835014
(lp1528
g4
asI15503433
(lp1529
g4
asI14905420
(lp1530
g4
asI13635662
(lp1531
g4
asI17526863
(lp1532
g4
asI623759440
(lp1533
g4
asI405868626
(lp1534
g4
asI71643224
(lp1535
g4
asI15306084
(lp1536
g4
asI18149467
(lp1537
g4
asI774236
(lp1538
g4
asI365383773
(lp1539
g11
asI244551777
(lp1540
g4
asI198037614
(lp1541
g4
asI143741040
(lp1542
g4
asI240744467
(lp1543
g4
asI13480052
(lp1544
g4
asI234860665
(lp1545
g4
asI190705789
(lp1546
g4
asI540692606
(lp1547
g4
asI622547071
(lp1548
g4
asI15896705
(lp1549
g4
asI21254276
(lp1550
g4
asI64247830
(lp1551
g4
asI16953480
(lp1552
g4
asI12611722
(lp1553
g4
asI50122893
(lp1554
g4
asI160665743
(lp1555
g4
asI190836882
(lp1556
g4
asI474032153
(lp1557
g4
asI66195608
(lp1558
g4
asI265400476
(lp1559
g4
asI13389982
(lp1560
g4
asI15298719
(lp1561
g4
asI881291425
(lp1562
g4
asI221016228
(lp1563
g4
asI183808167
(lp1564
g4
asI16715946
(lp1565
g4
asI122540204
(lp1566
g4
asI700593
(lp1567
g4
asI191657685
(lp1568
g4
asI114184377
(lp1569
g4
asI232763580
(lp1570
g4
asI15298751
(lp1571
g4
asI17633476
(lp1572
g4
asI240486433
(lp1573
g4
asI490631368
(lp1574
g4
asI274297034
(lp1575
g4
asI15003854
(lp1576
g4
asI73707727
(lp1577
g4
asI28610770
(lp1578
g52
asI915329238
(lp1579
g4
asI317632729
(lp1580
g4
asI879161563
(lp1581
g4
asI492114143
(lp1582
g4
asI244838628
(lp1583
g4
asI9836582
(lp1584
g4
asI161055442
(lp1585
g4
asI618893553
(lp1586
g4
asI168669429
(lp1587
g4
asI338325753
(lp1588
g4
asI519647487
(lp1589
g4
asI83816705
(lp1590
g4
asI372707590
(lp1591
g4
asI144584967
(lp1592
g4
asI15233289
(lp1593
g4
asI19468555
(lp1594
g4
asI105860482
(lp1595
g4
asI87494926
(lp1596
g4
asI289771794
(lp1597
g4
asI441970965
(lp1598
g4
asI28609576
(lp1599
g4
asI3133721
(lp1600
g4
asI116486427
(lp1601
g4
asI15839517
(lp1602
g4
asI284373282
(lp1603
g4
asI109703465
(lp1604
g4
asI580030765
(lp1605
g4
asI103183069
(lp1606
g4
asI42346547
(lp1607
g4
asI48935222
(lp1608
g4
asI180916535
(lp1609
g4
asI249934139
(lp1610
g4
asI388895038
(lp1611
g4
asI14799178
(lp1612
g4
asI177533262
(lp1613
g4
asI19353936
(lp1614
g4
asI18436433
(lp1615
g4
asI818041171
(lp1616
g4
asI69513559
(lp1617
g4
asI1008218456
(lp1618
g4
asI468873565
(lp1619
g4
asI54153566
(lp1620
g4
asI468357475
(lp1621
g4
asI618484070
(lp1622
g4
asI434835815
(lp1623
g4
asI52998511
(lp1624
g4
asI15323504
(lp1625
g4
asI45166962
(lp1626
g4
asI21770611
(lp1627
g4
asI9974132
(lp1628
g4
asI260043126
(lp1629
g4
asI362033527
(lp1630
g4
asI40636792
(lp1631
g4
asI96811071
(lp1632
g4
asI244593021
(lp1633
g4
asI228864383
(lp1634
g4
asI803903552
(lp1635
g4
asI145600904
(lp1636
g4
asI14189292
(lp1637
g4
asI54514059
(lp1638
g4
asI9793932
(lp1639
g4
asI322597261
(lp1640
g4
asI723882386
(lp1641
g4
asI162173332
(lp1642
g4
asI12661142
(lp1643
g4
asI34664856
(lp1644
g4
asI125073476
(lp1645
g4
asI23368092
(lp1646
g4
asI163361183
(lp1647
g4
asI21672352
(lp1648
g66
asI410096033
(lp1649
g4
asI13054372
(lp1650
g4
asI19247528
(lp1651
g4
asI27700636
(lp1652
g4
asI124590151
(lp1653
g4
asI258044332
(lp1654
g4
asI8286962
(lp1655
g4
asI211317167
(lp1656
g4
asI23564723
(lp1657
g4
asI2331061
(lp1658
g4
asI134559970
(lp1659
g4
asI61477304
(lp1660
g4
asI141783486
(lp1661
g4
asI197559029
(lp1662
g4
asI182022594
(lp1663
g4
asI51745219
(lp1664
g4
asI272339397
(lp1665
g52
asI80589255
(lp1666
g4
asI41480649
(lp1667
g4
asI195875575
(lp1668
g4
asI15807353
(lp1669
g4
asI15667666
(lp1670
g4
asI108331769
(lp1671
g4
asI479203801
(lp1672
g4
asI975909338
(lp1673
g66
asI252367324
(lp1674
g4
asI101036509
(lp1675
g4
asI872002014
(lp1676
g4
asI16585184
(lp1677
g4
asI350540259
(lp1678
g4
asI924528038
(lp1679
g4
asI223965670
(lp1680
g4
asI40096235
(lp1681
g4
asI2243161
(lp1682
g4
asI14832111
(lp1683
g4
asI14070257
(lp1684
g4
asI389607922
(lp1685
g4
asI280334838
(lp1686
g4
asI18772471
(lp1687
g4
asI15446520
(lp1688
g4
asI387936761
(lp1689
g4
asI19993086
(lp1690
g4
asI21549567
(lp1691
g4
asI15815424
(lp1692
g4
asI203018759
(lp1693
g4
asI31281673
(lp1694
g4
asI475386382
(lp1695
g4
asI593089039
(lp1696
g66
asI196923922
(lp1697
g4
asI895578644
(lp1698
g52
asI22712854
(lp1699
g4
asI166580765
(lp1700
g4
asI34722341
(lp1701
g4
asI55390763
(lp1702
g4
asI73986605
(lp1703
g4
ag52
ag11
ag66
ag164
asI14660142
(lp1704
g4
asI41154653
(lp1705
g4
asI251679284
(lp1706
g4
asI193008183
(lp1707
g4
asI21516857
(lp1708
g4
asI396988987
(lp1709
g4
asI22655549
(lp1710
g4
asI35492415
(lp1711
g4
asI438301250
(lp1712
g4
asI177629281
(lp1713
g4
asI20795979
(lp1714
g4
asI193843789
(lp1715
g4
asI11637332
(lp1716
g4
asI9818712
(lp1717
g4
asI97112665
(lp1718
g4
asI19264094
(lp1719
g4
asI918557280
(lp1720
g4
asI16044643
(lp1721
g4
asI16183908
(lp1722
g4
asI79573607
(lp1723
g4
asI17388138
(lp1724
g4
asI21279340
(lp1725
g4
asI82702958
(lp1726
g4
asI460750270
(lp1727
g4
asI24941176
(lp1728
g4
asI481817212
(lp1729
g4
asI469004925
(lp1730
g4
asI124613246
(lp1731
g4
asI199234187
(lp1732
g4
asI164644973
(lp1733
g4
asI55276176
(lp1734
g4
asI596169362
(lp1735
g4
asI166417050
(lp1736
g4
asI11039392
(lp1737
g4
asI19403425
(lp1738
g4
asI708383394
(lp1739
g4
asI127898277
(lp1740
g4
asI211268264
(lp1741
g4
asI204436139
(lp1742
g4
asI452457132
(lp1743
g4
asI15819550
(lp1744
g4
asI51425980
(lp1745
g4
asI16739786
(lp1746
g4
asI15372994
(lp1747
g4
asI56349379
(lp1748
g4
asI14111434
(lp1749
g4
asI13734612
(lp1750
g4
asI216945365
(lp1751
g4
asI115307222
(lp1752
g4
asI173142743
(lp1753
g4
asI482349784
(lp1754
g4
asI60699354
(lp1755
g4
asI16593629
(lp1756
g4
asI18772703
(lp1757
g4
asI151753441
(lp1758
g4
asI193852130
(lp1759
g4
asI17412142
(lp1760
g4
asI227480302
(lp1761
g4
asI546378480
(lp1762
g4
asI14066472
(lp1763
g4
asI72766194
(lp1764
g4
asI210989812
(lp1765
g4
asI15110901
(lp1766
g4
asI18469623
(lp1767
g4
asI294056696
(lp1768
g4
asI189560007
(lp1769
g4
asI19787221
(lp1770
g4
asI176829184
(lp1771
g4
asI306344705
(lp1772
g4
asI64099075
(lp1773
g4
asI161462044
(lp1774
g4
asI17298183
(lp1775
g4
ag11
ag66
asI6837002
(lp1776
g4
asI33649426
(lp1777
g4
asI527119125
(lp1778
g4
asI709751581
(lp1779
g4
asI250680094
(lp1780
g4
asI323867425
(lp1781
g4
asI19698470
(lp1782
g4
asI32764712
(lp1783
g4
asI58176297
(lp1784
g4
asI614372147
(lp1785
g4
asI189805370
(lp1786
g4
asI210465600
(lp1787
g4
asI15717185
(lp1788
g4
asI439644995
(lp1789
g4
asI152441669
(lp1790
g4
asI51270471
(lp1791
g4
asI4936
(lp1792
g4
asI301632994
(lp1793
g4
asI15143758
(lp1794
g4
asI201855825
(lp1795
g4
asI249336659
(lp1796
g4
asI15274836
(lp1797
g4
asI796906328
(lp1798
g52
asI231338842
(lp1799
g4
asI96564060
(lp1800
g4
asI597226333
(lp1801
g52
asI68399967
(lp1802
g4
asI866985661
(lp1803
g4
asI5452642
(lp1804
g4
asI183587683
(lp1805
g4
asI43163924
(lp1806
g4
asI133550954
(lp1807
g4
asI15258479
(lp1808
g4
asI389590504
(lp1809
g4
asI99390322
(lp1810
g4
asI124507001
(lp1811
g4
asI178525052
(lp1812
g4
asI70144895
(lp1813
g4
asI731042690
(lp1814
g4
asI3634051
(lp1815
g4
asI885445292
(lp1816
g4
asI32307350
(lp1817
g4
asI844616582
(lp1818
g4
asI18174785
(lp1819
g4
asI14242625
(lp1820
g4
asI60699532
(lp1821
g4
asI80368526
(lp1822
g4
asI87823248
(lp1823
g4
asI97670034
(lp1824
g4
asI14275475
(lp1825
g4
asI64328598
(lp1826
g4
asI48624536
(lp1827
g4
asI128807833
(lp1828
g4
asI14290415
(lp1829
g4
asI202683295
(lp1830
g4
asI996052464
(lp1831
g66
asI190412955
(lp1832
g4
asI86987686
(lp1833
g4
asI74757032
(lp1834
g4
asI154981289
(lp1835
g4
asI106107819
(lp1836
g4
asI185619376
(lp1837
g4
asI87798705
(lp1838
g4
asI405828531
(lp1839
g4
asI71406516
(lp1840
g4
asI16831415
(lp1841
g4
asI18027450
(lp1842
g4
asI123392955
(lp1843
g4
asI199959370
(lp1844
g4
asI98177982
(lp1845
g4
asI133256130
(lp1846
g4
asI14693317
(lp1847
g4
asI16192454
(lp1848
g4
asI285021127
(lp1849
g4
asI165147596
(lp1850
g4
asI731739086
(lp1851
g4
asI56562642
(lp1852
g52
asI188019667
(lp1853
g4
asI33207256
(lp1854
g4
asI172278968
(lp1855
g4
asI33042238
(lp1856
g4
asI16911866
(lp1857
g4
asI38925280
(lp1858
g4
asI49583073
(lp1859
g4
asI284718050
(lp1860
g52
asI258618343
(lp1861
g4
asI252105705
(lp1862
g4
asI89723882
(lp1863
g4
asI114529259
(lp1864
g4
asI27841516
(lp1865
g4
asI378188781
(lp1866
g4
asI47674350
(lp1867
g4
asI36623343
(lp1868
g4
asI161010673
(lp1869
g4
asI469799924
(lp1870
g4
asI158946294
(lp1871
g11
asI15819604
(lp1872
g4
asI315315201
(lp1873
g4
asI214815746
(lp1874
g4
asI184710151
(lp1875
g4
asI365949960
(lp1876
g4
asI85341198
(lp1877
g4
asI8918032
(lp1878
g4
asI75011090
(lp1879
g4
asI386479123
(lp1880
g4
asI83956760
(lp1881
g4
asI184082955
(lp1882
g4
asI15184929
(lp1883
g4
asI14652452
(lp1884
g4
asI52851749
(lp1885
g4
asI13350
(lp1886
g4
asI209409063
(lp1887
g4
asI212341803
(lp1888
g4
asI50582574
(lp1889
g4
asI207631197
(lp1890
g4
asI155540491
(lp1891
g4
asI15221598
(lp1892
g4
asI41759801
(lp1893
g4
asI205870141
(lp1894
g4
asI361468994
(lp1895
g4
asI182324747
(lp1896
g4
asI23090247
(lp1897
g4
asI31667272
(lp1898
g4
ag11
ag66
ag164
asI552252489
(lp1899
g4
asI19207243
(lp1900
g4
asI110236748
(lp1901
g4
asI14390349
(lp1902
g4
asI166130766
(lp1903
g4
asI6637752
(lp1904
g4
asI193389411
(lp1905
g4
asI90477652
(lp1906
g4
asI191665239
(lp1907
g4
asI116847707
(lp1908
g4
asI28349536
(lp1909
g4
asI193981968
(lp1910
g4
asI12874852
(lp1911
g4
asI121584525
(lp1912
g4
asI124053692
(lp1913
g4
asI21883069
(lp1914
g4
asI193377392
(lp1915
g4
asI3101811
(lp1916
g4
asI35976041
(lp1917
g4
asI73954428
(lp1918
g4
asI142890112
(lp1919
g4
asI267390486
(lp1920
g4
asI272862743
(lp1921
g4
asI39310477
(lp1922
g4
asI28398737
(lp1923
g4
asI21043437
(lp1924
g4
asI16741524
(lp1925
g4
asI17249430
(lp1926
g4
asI522728599
(lp1927
g4
asI381694831
(lp1928
g4
asI386077853
(lp1929
g4
asI455693470
(lp1930
g4
asI14840993
(lp1931
g4
asI234222757
(lp1932
g4
asI313922417
(lp1933
g4
asI97383592
(lp1934
g4
asI105305259
(lp1935
g4
asI106329260
(lp1936
g4
asI619693
(lp1937
g4
asI243405999
(lp1938
g4
asI46077104
(lp1939
g4
asI185889970
(lp1940
g4
asI436152521
(lp1941
g11
asI78845112
(lp1942
g4
asI148133049
(lp1943
g4
asI5682362
(lp1944
g4
asI538342587
(lp1945
g4
asI83367102
(lp1946
g4
asI1079763829
(lp1947
g66
asI18257088
(lp1948
g4
asI272225474
(lp1949
g4
asI40973507
(lp1950
g4
asI70743239
(lp1951
g4
asI767183
(lp1952
g4
asI88487120
(lp1953
g4
asI155940051
(lp1954
g4
asI14734548
(lp1955
g4
asI199488726
(lp1956
g4
asI3224441
(lp1957
g4
ag52
ag11
ag66
ag164
asI15496407
(lp1958
g4
asI131881168
(lp1959
g4
asI200388589
(lp1960
g4
asI65402085
(lp1961
g4
asI82007271
(lp1962
g4
asI21881155
(lp1963
g4
asI584258797
(lp1964
g4
asI96965871
(lp1965
g4
asI24696048
(lp1966
g4
asI14808307
(lp1967
g4
asI240678132
(lp1968
g4
asI627954935
(lp1969
g4
asI26014968
(lp1970
g4
asI205034746
(lp1971
g4
asI18830590
(lp1972
g4
asI15693056
(lp1973
g4
asI17978626
(lp1974
g4
asI355374341
(lp1975
g4
asI779137
(lp1976
g4
asI190330120
(lp1977
g4
asI25015568
(lp1978
g4
asI22115606
(lp1979
g4
asI15029529
(lp1980
g4
asI17356060
(lp1981
g4
asI17560863
(lp1982
g4
asI21213658
(lp1983
g4
asI23647523
(lp1984
g4
asI150451495
(lp1985
g4
asI491669665
(lp1986
g4
asI19739946
(lp1987
g4
asI375026987
(lp1988
g4
asI805745965
(lp1989
g4
asI83924272
(lp1990
g4
asI25425329
(lp1991
g4
asI121492790
(lp1992
g4
asI59815223
(lp1993
g4
asI213202234
(lp1994
g4
asI259814716
(lp1995
g4
asI634673
(lp1996
g52
asI21140798
(lp1997
g4
asI51794827
(lp1998
g4
asI14300484
(lp1999
g4
asI34714954
(lp2000
g4
asI198792523
(lp2001
g4
asI227768546
(lp2002
g4
asI22238542
(lp2003
g4
asI373912911
(lp2004
g4
asI207141091
(lp2005
g4
asI199226711
(lp2006
g4
asI145292880
(lp2007
g4
asI200103259
(lp2008
g4
asI23166140
(lp2009
g4
asI17044833
(lp2010
g4
asI361379174
(lp2011
g4
asI19248489
(lp2012
g4
asI21878123
(lp2013
g4
asI15160685
(lp2014
g4
asI775861
(lp2015
g4
asI153687408
(lp2016
g4
asI117609842
(lp2017
g4
asI16807285
(lp2018
g4
asI188323191
(lp2019
g4
asI45757816
(lp2020
g4
asI40113530
(lp2021
g4
asI14562685
(lp2022
g4
asI937883006
(lp2023
g4
asI38614400
(lp2024
g4
asI326194568
(lp2025
g4
asI12408202
(lp2026
g4
asI34977164
(lp2027
g4
asI24844525
(lp2028
g4
asI11154832
(lp2029
g4
asI116151704
(lp2030
g4
asI292730269
(lp2031
g4
asI142710176
(lp2032
g4
asI4814241
(lp2033
g4
asI190022555
(lp2034
g4
asI16692647
(lp2035
g4
asI42079656
(lp2036
g4
asI229945366
(lp2037
g4
asI240694705
(lp2038
g4
asI293598642
(lp2039
g4
asI25843123
(lp2040
g4
asI118162334
(lp2041
g4
asI275615004
(lp2042
g4
asI14267832
(lp2043
g4
asI164270565
(lp2044
g4
asI14071230
(lp2045
g4
asI216627445
(lp2046
g4
asI499774912
(lp2047
g4
asI201009804
(lp2048
g4
asI531879364
(lp2049
g4
asI11294152
(lp2050
g4
asI145216969
(lp2051
g4
asI151230711
(lp2052
g4
asI381113812
(lp2053
g4
asI19420634
(lp2054
g4
asI977016283
(lp2055
g4
asI419845598
(lp2056
g4
asI213898719
(lp2057
g4
asI47551969
(lp2058
g4
asI186029539
(lp2059
g4
asI16954857
(lp2060
g4
asI205460392
(lp2061
g4
asI67016181
(lp2062
g4
asI55384319
(lp2063
g4
asI218953214
(lp2064
g4
asI55547392
(lp2065
g4
asI20903427
(lp2066
g4
asI144304385
(lp2067
g4
asI172824072
(lp2068
g4
asI802993674
(lp2069
g4
asI3470861
(lp2070
g4
asI15701519
(lp2071
g4
asI789108240
(lp2072
g4
asI22631958
(lp2073
g4
asI210179607
(lp2074
g4
asI198522392
(lp2075
g4
asI148002330
(lp2076
g4
asI44491695
(lp2077
g4
asI16135709
(lp2078
g4
asI119895583
(lp2079
g4
asI61814304
(lp2080
g4
asI166565410
(lp2081
g4
asI17421861
(lp2082
g4
asI3855911
(lp2083
g4
asI550229545
(lp2084
g4
asI48764460
(lp2085
g4
asI774551089
(lp2086
g4
asI393852466
(lp2087
g4
asI14136886
(lp2088
g4
asI11114042
(lp2089
g4
asI149370427
(lp2090
g4
asI61863485
(lp2091
g4
asI138874315
(lp2092
g4
asI73446975
(lp2093
g4
asI117929536
(lp2094
g4
asI22173250
(lp2095
g4
asI31471175
(lp2096
g4
asI67029260
(lp2097
g4
asI15847763
(lp2098
g4
asI70969613
(lp2099
g4
asI599823952
(lp2100
g4
asI104232532
(lp2101
g4
asI111179352
(lp2102
g4
asI545404505
(lp2103
g4
asI33617498
(lp2104
g4
asI145520220
(lp2105
g4
asI15103590
(lp2106
g4
asI149018216
(lp2107
g4
asI18847339
(lp2108
g4
asI164181615
(lp2109
g4
asI153376368
(lp2110
g4
asI242079355
(lp2111
g4
asI146536061
(lp2112
g4
asI17512062
(lp2113
g4
asI760608390
(lp2114
g4
asI168973959
(lp2115
g4
asI164386441
(lp2116
g4
asI705287821
(lp2117
g4
asI206698128
(lp2118
g4
asI17413777
(lp2119
g4
asI69645972
(lp2120
g4
asI2946711
(lp2121
g4
asI17634969
(lp2122
g4
asI84401775
(lp2123
g4
asI222647968
(lp2124
g4
asI378058404
(lp2125
g4
asI17399353
(lp2126
g4
asI487560870
(lp2127
g4
asI112989865
(lp2128
g4
asI20534955
(lp2129
g4
asI60282540
(lp2130
g4
asI566599282
(lp2131
g4
asI62723758
(lp2132
g4
asI58742447
(lp2133
g4
asI829257396
(lp2134
g4
asI14948021
(lp2135
g4
asI327014070
(lp2136
g4
asI79543
(lp2137
g4
asI8320702
(lp2138
g4
asI20567743
(lp2139
g4
asI17700544
(lp2140
g4
asI201078466
(lp2141
g4
asI16971459
(lp2142
g4
asI23959236
(lp2143
g4
asI212653767
(lp2144
g4
asI524641229
(lp2145
g4
asI352753365
(lp2146
g4
asI14579415
(lp2147
g4
asI305018584
(lp2148
g4
asI180794992
(lp2149
g4
asI171701978
(lp2150
g4
asI196218490
(lp2151
g4
asI20526816
(lp2152
g4
asI15136484
(lp2153
g4
asI193353447
(lp2154
g4
asI17954536
(lp2155
g4
asI6092522
(lp2156
g4
asI100996850
(lp2157
g4
asI195900371
(lp2158
g4
asI224163572
(lp2159
g4
asI75552505
(lp2160
g4
asI103044858
(lp2161
g4
asI16807677
(lp2162
g4
asI51238658
(lp2163
g11
asI20354821
(lp2164
g4
asI20313869
(lp2165
g4
asI92678445
(lp2166
g4
asI93796112
(lp2167
g4
asI160867288
(lp2168
g4
asI183727890
(lp2169
g4
asI15007363
(lp2170
g4
asI230579713
(lp2171
g4
asI21702958
(lp2172
g4
asI14554903
(lp2173
g4
asI14964504
(lp2174
g4
asI542848793
(lp2175
g4
asI524662554
(lp2176
g4
asI9082652
(lp2177
g4
asI409507618
(lp2178
g4
asI16983003
(lp2179
g4
asI96024356
(lp2180
g4
asI1114134313
(lp2181
g66
asI71399214
(lp2182
g4
asI44807984
(lp2183
g4
asI16611121
(lp2184
g4
asI293254965
(lp2185
g4
asI160855862
(lp2186
g4
asI923531064
(lp2187
g4
asI97810233
(lp2188
g4
asI11294522
(lp2189
g4
asI543831868
(lp2190
g4
asI159545157
(lp2191
g4
asI198776648
(lp2192
g4
asI215349065
(lp2193
g4
asI186169163
(lp2194
g4
asI137780739
(lp2195
g4
asI140084640
(lp2196
g4
asI199415641
(lp2197
g4
asI23648093
(lp2198
g4
ag52
ag11
ag66
ag164
asI16701280
(lp2199
g4
asI385611620
(lp2200
g4
asI860501863
(lp2201
g4
asI14602975
(lp2202
g4
asI23897312
(lp2203
g4
asI32991549
(lp2204
g4
asI50042736
(lp2205
g4
asI26367857
(lp2206
g4
asI613635955
(lp2207
g4
asI193042292
(lp2208
g4
asI25114486
(lp2209
g4
asI14751608
(lp2210
g4
asI112521824
(lp2211
g4
asI9492352
(lp2212
g4
asI60602244
(lp2213
g4
asI22159961
(lp2214
g4
asI93755272
(lp2215
g4
asI947681161
(lp2216
g4
asI89913226
(lp2217
g4
asI207542155
(lp2218
g4
asI20830100
(lp2219
g4
asI181000085
(lp2220
g4
asI136337303
(lp2221
g4
asI181884824
(lp2222
g4
asI19354607
(lp2223
g4
asI27596701
(lp2224
g4
asI18921376
(lp2225
g4
asI89367536
(lp2226
g4
asI165884913
(lp2227
g4
asI805230505
(lp2228
g4
asI27105195
(lp2229
g4
asI8820652
(lp2230
g4
asI196589485
(lp2231
g4
asI178919342
(lp2232
g4
asI269588400
(lp2233
g4
asI16684978
(lp2234
g4
asI22689717
(lp2235
g4
asI415601652
(lp2236
g4
asI273348542
(lp2237
g4
asI24999872
(lp2238
g4
asI218691526
(lp2239
g4
asI18560967
(lp2240
g4
asI27023307
(lp2241
g4
asI353793996
(lp2242
g4
asI17233871
(lp2243
g4
asI253065168
(lp2244
g4
asI14759893
(lp2245
g4
asI267154425
(lp2246
g4
asI37722074
(lp2247
g4
asI14354767
(lp2248
g4
asI235182044
(lp2249
g4
asI60930017
(lp2250
g4
asI70498274
(lp2251
g4
asI198178790
(lp2252
g4
asI79837163
(lp2253
g4
asI363730925
(lp2254
g4
ag52
ag11
ag66
ag164
asI26777587
(lp2255
g4
ag11
ag66
ag164
asI9861112
(lp2256
g4
asI52162223
(lp2257
g4
asI15587326
(lp2258
g4
asI1069193215
(lp2259
g52
asI41605121
(lp2260
g4
asI307509250
(lp2261
g4
asI14145543
(lp2262
g4
asI3334971
(lp2263
g4
asI214202379
(lp2264
g4
asI31119704
(lp2265
g4
asI518510611
(lp2266
g4
asI65107989
(lp2267
g4
asI175437846
(lp2268
g66
asI123648023
(lp2269
g4
asI19879963
(lp2270
g4
asI169261087
(lp2271
g4
asI83490848
(lp2272
g4
asI56432673
(lp2273
g4
asI13680
(lp2274
g4
asI137331718
(lp2275
g4
asI16644134
(lp2276
g4
ag52
ag11
ag66
ag164
asI785595
(lp2277
g4
asI249627655
(lp2278
g66
asI16422958
(lp2279
g4
asI518682671
(lp2280
g4
asI202299441
(lp2281
g4
asI14350387
(lp2282
g4
asI179173429
(lp2283
g4
asI38697015
(lp2284
g4
asI384956476
(lp2285
g4
asI21182525
(lp2286
g4
asI405821503
(lp2287
g4
asI39417920
(lp2288
g4
asI26802244
(lp2289
g4
asI49920069
(lp2290
g66
asI17709126
(lp2291
g4
asI49797191
(lp2292
g4
asI128047177
(lp2293
g4
asI44406858
(lp2294
g4
asI50001997
(lp2295
g4
asI403052624
(lp2296
g4
asI80271442
(lp2297
g4
asI548583514
(lp2298
g4
asI16201819
(lp2299
g4
asI25426013
(lp2300
g4
asI974231648
(lp2301
g11
asI16578658
(lp2302
g4
asI140418747
(lp2303
g4
asI9541732
(lp2304
g4
asI41965669
(lp2305
g4
asI919517286
(lp2306
g4
asI89913448
(lp2307
g4
asI188599996
(lp2308
g4
asI277403754
(lp2309
g4
asI40168855
(lp2310
g4
asI200095853
(lp2311
g4
asI18536559
(lp2312
g4
asI773214804
(lp2313
g4
asI91887730
(lp2314
g4
asI211196019
(lp2315
g4
asI463222910
(lp2316
g4
asI186005632
(lp2317
g4
asI253974659
(lp2318
g4
asI199431844
(lp2319
g4
asI769456262
(lp2320
g4
asI19306636
(lp2321
g4
asI494221455
(lp2322
g4
asI16177296
(lp2323
g4
asI55957652
(lp2324
g4
asI180114960
(lp2325
g4
asI19085465
(lp2326
g4
asI343431323
(lp2327
g4
asI708303008
(lp2328
g4
asI151488880
(lp2329
g4
asI218716325
(lp2330
g4
asI27834534
(lp2331
g4
asI283138216
(lp2332
g4
asI4864171
(lp2333
g4
asI107960690
(lp2334
g4
asI16226484
(lp2335
g4
asI270063798
(lp2336
g4
asI25262272
(lp2337
g4
asI566833767
(lp2338
g11
asI38271176
(lp2339
g4
asI183367350
(lp2340
g4
asI96867589
(lp2341
g4
asI10246352
(lp2342
g4
asI164403414
(lp2343
g4
asI437459161
(lp2344
g4
asI15014107
(lp2345
g4
asI231094495
(lp2346
g4
asI8206562
(lp2347
g4
asI360741091
(lp2348
g4
asI14735589
(lp2349
g4
asI1003411686
(lp2350
g4
asI111851753
(lp2351
g4
asI100089301
(lp2352
g4
asI20732140
(lp2353
g4
asI14891245
(lp2354
g4
asI18364654
(lp2355
g4
asI806992112
(lp2356
g4
asI56637681
(lp2357
g4
asI197146869
(lp2358
g4
asI72997110
(lp2359
g4
ag52
ag11
ag66
ag164
asI413579511
(lp2360
g4
asI43339476
(lp2361
g4
asI44775677
(lp2362
g4
asI19618046
(lp2363
g4
asI16912085
(lp2364
g4
asI818485506
(lp2365
g66
asI119125430
(lp2366
g4
asI171679447
(lp2367
g4
asI15218956
(lp2368
g4
asI178575629
(lp2369
g4
asI716489773
(lp2370
g4
asI20900227
(lp2371
g4
asI370940180
(lp2372
g4
asI72620314
(lp2373
g4
asI14596391
(lp2374
g4
asI32897323
(lp2375
g4
asI14768431
(lp2376
g4
asI22018355
(lp2377
g4
ag52
ag11
ag66
ag164
asI176994614
(lp2378
g4
asI79845692
(lp2379
g4
asI16364711
(lp2380
g4
asI16528437
(lp2381
g4
asI7412032
(lp2382
g4
asI80943427
(lp2383
g4
asI55212357
(lp2384
g11
ag66
ag164
asI7739722
(lp2385
g4
asI792907
(lp2386
g4
asI935278926
(lp2387
g4
asI159652176
(lp2388
g4
asI743763
(lp2389
g4
asI919599445
(lp2390
g4
asI12106072
(lp2391
g4
asI27971300
(lp2392
g4
asI21043546
(lp2393
g4
asI15612251
(lp2394
g4
asI434076000
(lp2395
g4
asI917264738
(lp2396
g4
asI24639845
(lp2397
g4
asI78379372
(lp2398
g4
asI145938801
(lp2399
g4
asI304765298
(lp2400
g4
asI149494131
(lp2401
g4
asI248273271
(lp2402
g4
asI51167125
(lp2403
g4
asI121278779
(lp2404
g4
asI74570107
(lp2405
g4
asI22731134
(lp2406
g4
asI15948159
(lp2407
g4
asI861936236
(lp2408
g4
asI817540
(lp2409
g4
asI870463879
(lp2410
g4
asI109506284
(lp2411
g4
asI25688458
(lp2412
g4
asI89440968
(lp2413
g4
asI29915533
(lp2414
g4
asI283687315
(lp2415
g4
asI249362837
(lp2416
g4
asI120232348
(lp2417
g4
asI192002461
(lp2418
g4
asI7149982
(lp2419
g4
asI96680356
(lp2420
g4
asI288184743
(lp2421
g4
asI17144236
(lp2422
g4
asI9753672
(lp2423
g4
asI151263666
(lp2424
g4
asI16711411
(lp2425
g4
asI21174708
(lp2426
g4
asI67385782
(lp2427
g4
asI273234359
(lp2428
g4
asI17226172
(lp2429
g4
asI17578429
(lp2430
g4
asI235321793
(lp2431
g4
asI922941890
(lp2432
g4
asI19419607
(lp2433
g4
asI50706891
(lp2434
g4
asI138934732
(lp2435
g4
asI34249165
(lp2436
g4
asI364788176
(lp2437
g4
asI183761362
(lp2438
g4
asI180287955
(lp2439
g4
asI197245400
(lp2440
g4
asI494344666
(lp2441
g4
asI862247389
(lp2442
g4
asI41654751
(lp2443
g4
asI167180768
(lp2444
g4
asI475477073
(lp2445
g4
asI367163815
(lp2446
g4
asI172464621
(lp2447
g4
asI21658094
(lp2448
g4
asI171629039
(lp2449
g4
asI18242032
(lp2450
g4
asI149275731
(lp2451
g4
asI45070836
(lp2452
g4
asI13106942
(lp2453
g4
asI22193236
(lp2454
g4
asI24107514
(lp2455
g4
ag52
ag11
ag66
ag164
asI205715963
(lp2456
g4
asI44224256
(lp2457
g4
asI135690754
(lp2458
g4
asI257120773
(lp2459
g4
asI464887553
(lp2460
g52
asI5650952
(lp2461
g4
asI20805890
(lp2462
g4
asI60873227
(lp2463
g4
asI418249228
(lp2464
g4
asI569137678
(lp2465
g4
asI68559960
(lp2466
g4
asI117346051
(lp2467
g4
asI803256853
(lp2468
g4
asI194730518
(lp2469
g4
asI242825752
(lp2470
g4
asI167131676
(lp2471
g4
asI16194080
(lp2472
g4
asI21887533
(lp2473
g4
asI554687023
(lp2474
g4
asI20314673
(lp2475
g4
asI375224884
(lp2476
g4
asI205437494
(lp2477
g4
asI16366144
(lp2478
g4
asI123933793
(lp2479
g4
asI293199628
(lp2480
g4
asI31578699
(lp2481
g4
asI14072398
(lp2482
g4
asI16928525
(lp2483
g4
asI34830928
(lp2484
g4
asI17054292
(lp2485
g4
asI551187272
(lp2486
g4
asI19888727
(lp2487
g4
asI167317261
(lp2488
g4
asI185373796
(lp2489
g4
asI88140218
(lp2490
g4
asI158759519
(lp2491
g4
asI58038880
(lp2492
g4
asI231709282
(lp2493
g4
asI166860200
(lp2494
g4
asI101729382
(lp2495
g4
asI197220966
(lp2496
g4
asI445520488
(lp2497
g4
asI760428
(lp2498
g4
asI26688109
(lp2499
g4
asI47528565
(lp2500
g4
asI40319606
(lp2501
g4
asI573215849
(lp2502
g4
asI305486456
(lp2503
g4
asI26221177
(lp2504
g4
asI295828092
(lp2505
g4
asI162552448
(lp2506
g4
asI20216257
(lp2507
g4
asI908139146
(lp2508
g11
asI191546477
(lp2509
g4
asI341506708
(lp2510
g4
asI206076568
(lp2511
g4
asI15207852
(lp2512
g4
asI85383838
(lp2513
g4
asI474471071
(lp2514
g4
asI26958497
(lp2515
g4
asI198809309
(lp2516
g4
asI19724963
(lp2517
g4
asI97999524
(lp2518
g4
asI277617094
(lp2519
g4
asI11844262
(lp2520
g4
asI12819112
(lp2521
g4
asI279694236
(lp2522
g4
asI851167687
(lp2523
g4
asI1074393456
(lp2524
g66
asI16071351
(lp2525
g4
asI21781176
(lp2526
g4
asI3013311
(lp2527
g4
asI15850176
(lp2528
g4
asI16652747
(lp2529
g4
asI382532294
(lp2530
g4
asI25696968
(lp2531
g4
asI589019855
(lp2532
g4
asI714758864
(lp2533
g4
asI15088337
(lp2534
g4
asI224603939
(lp2535
g4
asI27597526
(lp2536
g4
asI53189336
(lp2537
g4
asI235272923
(lp2538
g4
asI3373791
(lp2539
g4
asI134822626
(lp2540
g4
asI84286182
(lp2541
g4
asI358316775
(lp2542
g4
asI161168108
(lp2543
g4
asI354522302
(lp2544
g4
asI98425584
(lp2545
g4
asI43047379
(lp2546
g4
asI381098743
(lp2547
g4
ag52
ag11
ag66
ag164
asI1153581
(lp2548
g4
asI454384379
(lp2549
g4
asI56310531
(lp2550
g4
asI14637833
(lp2551
g4
asI19331859
(lp2552
g4
asI868637460
(lp2553
g52
asI147626774
(lp2554
g4
asI44079896
(lp2555
g4
asI24263450
(lp2556
g4
asI18938651
(lp2557
g4
asI128143365
(lp2558
g52
asI107674397
(lp2559
g4
asI130012293
(lp2560
g4
asI46431009
(lp2561
g4
asI16210723
(lp2562
g4
asI21404454
(lp2563
g4
asI150400817
(lp2564
g4
asI202332971
(lp2565
g4
asI17685292
(lp2566
g4
asI141220659
(lp2567
g4
asI186071864
(lp2568
g4
asI18479930
(lp2569
g4
asI17177403
(lp2570
g4
asI24738621
(lp2571
g4
asI76839742
(lp2572
g4
asI327523135
(lp2573
g4
asI275503936
(lp2574
g4
asI283687745
(lp2575
g4
asI84106055
(lp2576
g4
asI24746825
(lp2577
g4
asI42113866
(lp2578
g4
asI46775115
(lp2579
g4
asI25197389
(lp2580
g4
asI228105039
(lp2581
g4
asI197450578
(lp2582
g4
asI567712595
(lp2583
g4
asI127482711
(lp2584
g4
asI14457688
(lp2585
g4
asI196000603
(lp2586
g4
asI71634746
(lp2587
g4
asI17046369
(lp2588
g4
asI470580073
(lp2589
g4
asI80395114
(lp2590
g4
asI525990375
(lp2591
g4
asI119831404
(lp2592
g4
asI87473007
(lp2593
g4
asI177211760
(lp2594
g4
asI448461684
(lp2595
g4
asI35745598
(lp2596
g4
asI405674870
(lp2597
g4
asI237409428
(lp2598
g4
asI19045244
(lp2599
g4
asI12434302
(lp2600
g4
asI39861127
(lp2601
g4
asI125762444
(lp2602
g4
asI18856845
(lp2603
g4
asI47717264
(lp2604
g4
asI85359506
(lp2605
g4
asI109149075
(lp2606
g4
asI8235812
(lp2607
g4
asI14924697
(lp2608
g4
asI14590707
(lp2609
g4
asI90577822
(lp2610
g66
asI16120736
(lp2611
g4
asI194075555
(lp2612
g4
asI38329264
(lp2613
g4
asI599956402
(lp2614
g4
asI785095604
(lp2615
g4
asI136149941
(lp2616
g4
asI21897580
(lp2617
g4
asI140100792
(lp2618
g4
asI14085962
(lp2619
g4
asI14621637
(lp2620
g4
asI20167623
(lp2621
g4
asI185195466
(lp2622
g4
asI55049166
(lp2623
g4
asI146865106
(lp2624
g4
asI493476820
(lp2625
g4
asI219098958
(lp2626
g4
asI240991194
(lp2627
g4
asI132561402
(lp2628
g4
asI153656287
(lp2629
g4
asI333839332
(lp2630
g4
asI935001061
(lp2631
g4
asI70999014
(lp2632
g4
asI202546155
(lp2633
g4
asI17349612
(lp2634
g4
asI14883821
(lp2635
g4
asI22223857
(lp2636
g4
asI74562547
(lp2637
g4
asI957619188
(lp2638
g4
asI258972661
(lp2639
g4
asI973020151
(lp2640
g4
asI25885688
(lp2641
g4
asI17275900
(lp2642
g4
asI78789634
(lp2643
g4
asI18357252
(lp2644
g4
asI18349067
(lp2645
g4
asI28486146
(lp2646
g4
asI14767277
(lp2647
g4
asI36174865
(lp2648
g4
asI246643731
(lp2649
g4
asI15185440
(lp2650
g4
asI17986973
(lp2651
g4
asI27368477
(lp2652
g4
asI72922288
(lp2653
g52
asI16047963
(lp2654
g4
asI26118662
(lp2655
g4
asI19627046
(lp2656
g4
asI442178601
(lp2657
g52
asI400907307
(lp2658
g4
asI17451411
(lp2659
g4
asI50887731
(lp2660
g4
asI268360756
(lp2661
g4
asI361544202
(lp2662
g4
asI38109868
(lp2663
g4
asI238804038
(lp2664
g4
asI545537097
(lp2665
g4
asI17765560
(lp2666
g4
asI47791189
(lp2667
g4
asI1006337112
(lp2668
g4
asI18455643
(lp2669
g4
asI212294751
(lp2670
g4
asI20511841
(lp2671
g4
asI14898259
(lp2672
g4
asI34022587
(lp2673
g4
asI40025193
(lp2674
g4
asI38730863
(lp2675
g4
asI346143856
(lp2676
g4
asI455785588
(lp2677
g4
asI20757621
(lp2678
g4
asI269468726
(lp2679
g4
asI96001149
(lp2680
g4
asI293870101
(lp2681
g4
asI16063617
(lp2682
g4
asI581172354
(lp2683
g4
asI371375237
(lp2684
g4
asI20216968
(lp2685
g4
asI143162505
(lp2686
g4
asI19356814
(lp2687
g4
asI16882833
(lp2688
g4
asI825908371
(lp2689
g4
asI582859926
(lp2690
g4
asI154655896
(lp2691
g4
asI846125515
(lp2692
g4
asI74529953
(lp2693
g4
asI587455652
(lp2694
g4
asI59448485
(lp2695
g4
asI14192558
(lp2696
g4
asI1979591
(lp2697
g4
asI23821484
(lp2698
g4
asI153992365
(lp2699
g4
asI196456850
(lp2700
g4
asI15645871
(lp2701
g66
asI212466865
(lp2702
g4
asI633814194
(lp2703
g4
asI16838515
(lp2704
g4
asI32537780
(lp2705
g4
asI59546806
(lp2706
g4
asI236747959
(lp2707
g4
asI15588537
(lp2708
g4
asI225279162
(lp2709
g4
asI15228091
(lp2710
g4
asI12483772
(lp2711
g4
asI28908736
(lp2712
g4
asI700234945
(lp2713
g4
asI260734147
(lp2714
g4
asI18365636
(lp2715
g4
asI18148466
(lp2716
g4
asI215932102
(lp2717
g4
asI542039241
(lp2718
g4
asI107347146
(lp2719
g4
asI77880523
(lp2720
g4
asI108698830
(lp2721
g4
asI72056016
(lp2722
g4
asI228700024
(lp2723
g4
asI786988242
(lp2724
g4
asI568933587
(lp2725
g4
asI34282709
(lp2726
g4
asI197759388
(lp2727
g4
asI61865179
(lp2728
g4
asI118078684
(lp2729
g4
asI83197153
(lp2730
g4
asI857758946
(lp2731
g4
asI794479142
(lp2732
g11
asI7478502
(lp2733
g4
asI240370897
(lp2734
g4
asI407723240
(lp2735
g4
asI371694827
(lp2736
g4
asI16940269
(lp2737
g4
asI85196014
(lp2738
g4
asI45800691
(lp2739
g4
asI485956861
(lp2740
g66
asI38804737
(lp2741
g4
asI148888837
(lp2742
g4
asI15817991
(lp2743
g4
asI182115592
(lp2744
g4
asI15357143
(lp2745
g4
asI84680578
(lp2746
g4
asI16563471
(lp2747
g4
asI47586577
(lp2748
g4
asI14400786
(lp2749
g4
asI138069665
(lp2750
g4
asI44513172
(lp2751
g4
asI350149915
(lp2752
g4
asI478919964
(lp2753
g4
asI23739677
(lp2754
g4
asI14099675
(lp2755
g4
asI55426341
(lp2756
g4
asI187729116
(lp2757
g4
asI451681180
(lp2758
g4
asI22043947
(lp2759
g4
asI708430386
(lp2760
g4
asI20397358
(lp2761
g4
asI22699315
(lp2762
g52
ag11
ag66
ag164
asI187956533
(lp2763
g4
asI285865144
(lp2764
g4
asI47054141
(lp2765
g4
asI217621728
(lp2766
g4
asI894057794
(lp2767
g4
asI138878275
(lp2768
g4
asI8596022
(lp2769
g4
asI343965000
(lp2770
g4
asI170065226
(lp2771
g4
asI367246669
(lp2772
g4
asI29236559
(lp2773
g4
asI312310319
(lp2774
g4
asI135945569
(lp2775
g4
asI13253992
(lp2776
g4
asI154328429
(lp2777
g4
asI18267504
(lp2778
g4
asI397332502
(lp2779
g4
asI41213298
(lp2780
g4
asI215448947
(lp2781
g4
asI14302580
(lp2782
g4
asI85138805
(lp2783
g4
asI233831798
(lp2784
g4
asI86392183
(lp2785
g4
asI122928507
(lp2786
g4
asI21134716
(lp2787
g4
asI14794109
(lp2788
g4
asI821722495
(lp2789
g4
ag52
ag11
ag66
ag164
asI28417408
(lp2790
g4
asI542088577
(lp2791
g4
asI433683844
(lp2792
g4
asI119802433
(lp2793
g4
asI24919436
(lp2794
g4
asI281173391
(lp2795
g4
asI18519457
(lp2796
g4
asI176192916
(lp2797
g4
asI363581432
(lp2798
g4
asI279487219
(lp2799
g4
asI198811032
(lp2800
g4
asI197459353
(lp2801
g4
asI16170404
(lp2802
g4
asI96083868
(lp2803
g4
asI16694698
(lp2804
g4
asI388472236
(lp2805
g4
asI19758510
(lp2806
g4
asI71843252
(lp2807
g4
asI84344247
(lp2808
g4
asI48026868
(lp2809
g4
asI86261181
(lp2810
g4
asI95567294
(lp2811
g4
asI193199551
(lp2812
g4
asI171564481
(lp2813
g4
asI578198979
(lp2814
g4
asI14540228
(lp2815
g4
asI29654470
(lp2816
g4
asI113860041
(lp2817
g4
asI591248843
(lp2818
g4
asI160030159
(lp2819
g4
asI16580053
(lp2820
g4
asI46767575
(lp2821
g4
asI18433533
(lp2822
g4
asI83058141
(lp2823
g4
asI395238878
(lp2824
g4
asI232766944
(lp2825
g4
asI355392993
(lp2826
g66
asI47545826
(lp2827
g4
asI165141988
(lp2828
g4
asI123534821
(lp2829
g4
asI19599271
(lp2830
g4
asI14327276
(lp2831
g4
asI126754289
(lp2832
g4
asI153157108
(lp2833
g4
asI467009013
(lp2834
g4
asI108559862
(lp2835
g4
asI72596983
(lp2836
g4
asI418110975
(lp2837
g4
asI827284993
(lp2838
g4
asI1010884099
(lp2839
g4
asI12983812
(lp2840
g4
asI130317831
(lp2841
g4
asI154598925
(lp2842
g4
asI13598222
(lp2843
g4
asI185716653
(lp2844
g4
asI550607448
(lp2845
g4
asI555195923
(lp2846
g4
asI199171604
(lp2847
g4
asI107089838
(lp2848
g4
asI80271961
(lp2849
g4
asI6564442
(lp2850
g4
asI14071045
(lp2851
g4
asI76488224
(lp2852
g11
asI362724902
(lp2853
g4
asI27295275
(lp2854
g4
asI133488172
(lp2855
g4
asI211414962
(lp2856
g4
asI204414516
(lp2857
g4
asI108330549
(lp2858
g4
asI78706788
(lp2859
g4
asI31465017
(lp2860
g4
asI78503483
(lp2861
g4
asI129105470
(lp2862
g4
asI30891587
(lp2863
g4
asI233250372
(lp2864
g4
asI106511944
(lp2865
g4
asI212066025
(lp2866
g4
asI367918669
(lp2867
g4
asI14138960
(lp2868
g4
asI20110935
(lp2869
g4
asI226839140
(lp2870
g4
asI34528859
(lp2871
g4
asI169926237
(lp2872
g4
asI17858142
(lp2873
g4
asI24731231
(lp2874
g4
asI93609569
(lp2875
g4
asI119100489
(lp2876
g4
asI8363622
(lp2877
g4
asI86007399
(lp2878
g4
asI635821673
(lp2879
g4
asI28606058
(lp2880
g4
asI197647982
(lp2881
g4
asI126590575
(lp2882
g4
asI157859441
(lp2883
g4
asI280034930
(lp2884
g4
asI135675508
(lp2885
g4
asI200454078
(lp2886
g4
asI11738742
(lp2887
g4
asI196025975
(lp2888
g4
asI135118457
(lp2889
g4
asI17604543
(lp2890
g4
asI140656256
(lp2891
g4
asI22011521
(lp2892
g4
asI159628930
(lp2893
g4
asI168815211
(lp2894
g4
asI22789766
(lp2895
g4
asI832847497
(lp2896
g52
asI127179373
(lp2897
g4
asI9002642
(lp2898
g4
asI99761815
(lp2899
g4
asI101645976
(lp2900
g4
asI15695513
(lp2901
g4
asI583564954
(lp2902
g4
asI55615139
(lp2903
g4
asI847158949
(lp2904
g4
asI14720679
(lp2905
g4
asI418847356
(lp2906
g4
asI41721520
(lp2907
g4
asI205209265
(lp2908
g4
asI245661362
(lp2909
g4
asI6446772
(lp2910
g4
asI50126793
(lp2911
g4
asI16588475
(lp2912
g4
asI55982709
(lp2913
g4
asI624705216
(lp2914
g4
asI49807041
(lp2915
g4
asI351493826
(lp2916
g4
asI87872513
(lp2917
g4
asI277814985
(lp2918
g4
asI27688653
(lp2919
g4
asI184494712
(lp2920
g4
asI95444690
(lp2921
g4
asI46044315
(lp2922
g4
asI347471575
(lp2923
g4
asI205799131
(lp2924
g4
asI29187814
(lp2925
g4
asI93131237
(lp2926
g4
asI127019644
(lp2927
g4
asI84352746
(lp2928
g4
asI59174866
(lp2929
g4
asI9404142
(lp2930
g4
asI10870512
(lp2931
g4
asI82435827
(lp2932
g4
asI95477497
(lp2933
g4
asI17792766
(lp2934
g4
asI253209216
(lp2935
g4
asI44834562
(lp2936
g11
asI46932983
(lp2937
g4
asI36765448
(lp2938
g4
asI20414217
(lp2939
g4
asI5766922
(lp2940
g4
asI65154976
(lp2941
g4
asI519626513
(lp2942
g4
asI232603412
(lp2943
g4
asI19840789
(lp2944
g4
asI241991448
(lp2945
g4
asI20578073
(lp2946
g4
asI58040092
(lp2947
g4
asI16424736
(lp2948
g4
asI39470384
(lp2949
g4
asI818340
(lp2950
g4
asI107911120
(lp2951
g4
asI28984499
(lp2952
g4
asI214774490
(lp2953
g4
asI35807018
(lp2954
g4
asI373727020
(lp2955
g4
asI10818002
(lp2956
g4
asI107183921
(lp2957
g4
asI45334322
(lp2958
g4
asI413105971
(lp2959
g4
asI18104118
(lp2960
g4
asI39206712
(lp2961
g4
asI103377546
(lp2962
g4
asI42639166
(lp2963
g4
asI293756745
(lp2964
g4
asI18997068
(lp2965
g4
asI22986573
(lp2966
g4
asI44171091
(lp2967
g4
asI479878998
(lp2968
g4
asI617848663
(lp2969
g4
asI502587227
(lp2970
g4
asI87285598
(lp2971
g4
asI27688800
(lp2972
g4
asI36454246
(lp2973
g4
asI17342312
(lp2974
g4
asI127736683
(lp2975
g4
asI99083581
(lp2976
g4
asI573976552
(lp2977
g4
asI76706817
(lp2978
g4
asI128941941
(lp2979
g4
asI52689556
(lp2980
g4
asI82845565
(lp2981
g4
asI70401918
(lp2982
g4
asI224944002
(lp2983
g4
asI146734981
(lp2984
g4
asI276324234
(lp2985
g4
asI28204939
(lp2986
g4
asI17792911
(lp2987
g4
asI108797841
(lp2988
g4
asI14540690
(lp2989
g4
asI1022275566
(lp2990
g4
asI15540118
(lp2991
g4
asI5676952
(lp2992
g4
asI93265817
(lp2993
g4
asI22019994
(lp2994
g4
asI159866780
(lp2995
g4
asI824934301
(lp2996
g4
asI259391390
(lp2997
g4
asI28654709
(lp2998
g4
asI14974881
(lp2999
g4
asI143743563
(lp3000
g4
asI18369179
(lp3001
g4
asI986537892
(lp3002
g4
asI168681381
(lp3003
g4
asI17641457
(lp3004
g4
asI146423720
(lp3005
g4
asI40042413
(lp3006
g4
asI14622638
(lp3007
g4
asI76365746
(lp3008
g4
asI40050616
(lp3009
g4
asI38035385
(lp3010
g4
asI35741626
(lp3011
g4
asI17334203
(lp3012
g4
asI148299708
(lp3013
g4
asI102981565
(lp3014
g4
asI831610814
(lp3015
g4
asI418193343
(lp3016
g4
asI737302237
(lp3017
g4
asI123977470
(lp3018
g4
asI19054532
(lp3019
g4
asI121167817
(lp3020
g4
asI16048076
(lp3021
g4
asI35830434
(lp3022
g4
asI409518033
(lp3023
g4
asI14913837
(lp3024
g4
asI19665163
(lp3025
g4
asI16804220
(lp3026
g4
asI20283354
(lp3027
g4
asI419119067
(lp3028
g4
asI84025309
(lp3029
g4
asI14573538
(lp3030
g4
asI284976192
(lp3031
g4
asI19251173
(lp3032
g4
asI577036266
(lp3033
g4
asI280035308
(lp3034
g4
asI25903086
(lp3035
g4
asI451679567
(lp3036
g4
asI527605747
(lp3037
g4
asI46096376
(lp3038
g4
as.