(dp1
I246499333
(lp2
cdatetime
datetime
p3
(S'\x07\xdd\x01\t\x0f\x18\x14\x04\x7f\xb2'
tRp4
asI33714696
(lp5
g4
asI179724811
(lp6
g4
asI239444226
(lp7
g4
asI872458254
(lp8
g4
asI395859473
(lp9
g4
asI196081682
(lp10
g4
asI552316437
(lp11
g3
(S'\x07\xdd\x01\x18\x0c\x04\x02\x0eh\xd9'
tRp12
asI397222934
(lp13
g4
ag3
(S'\x07\xdd\x01\x10\x0c\x14\x01\x03\xfdY'
tRp14
ag3
(S'\x07\xdd\x01\x10\x0e;\x1e\x06\xb4\x91'
tRp15
ag12
ag3
(S'\x07\xdd\x01\x18\x0e\x00\x01\x08p\x9f'
tRp16
ag3
(S'\x07\xdd\x01\x18\x0e2\x02\x0cx\x94'
tRp17
asI334627352
(lp18
g4
asI889586714
(lp19
g4
asI594867546
(lp20
g4
asI485041328
(lp21
g4
asI305192995
(lp22
g4
asI753492516
(lp23
g4
asI28720165
(lp24
g4
asI495066662
(lp25
g4
asI898158631
(lp26
g4
asI402877703
(lp27
g4
ag14
ag15
ag12
ag16
ag17
asI246275116
(lp28
g4
asI411571979
(lp29
g4
asI20993544
(lp30
g4
asI99205175
(lp31
g4
ag14
ag15
ag12
ag16
ag17
asI226606138
(lp32
g4
asI961375291
(lp33
g4
ag12
ag16
ag17
asI100344380
(lp34
g4
asI963421759
(lp35
g4
asI391246400
(lp36
g4
asI46347331
(lp37
g4
asI20609097
(lp38
g4
asI296787019
(lp39
g4
asI106397772
(lp40
g4
asI125337165
(lp41
g4
asI268427345
(lp42
g4
asI352048722
(lp43
g4
asI288349486
(lp44
g4
asI146611285
(lp45
g4
asI80317527
(lp46
g4
asI119895130
(lp47
g4
asI947982775
(lp48
g4
asI30888543
(lp49
g4
asI564950112
(lp50
g4
ag14
ag15
ag12
ag16
ag17
asI284999277
(lp51
g4
asI813363314
(lp52
g4
asI431015027
(lp53
g4
asI815915636
(lp54
g4
asI479908201
(lp55
g4
asI39019643
(lp56
g14
asI823359614
(lp57
g4
asI489368705
(lp58
g4
asI897320580
(lp59
g4
asI802050181
(lp60
g4
asI836231
(lp61
g4
asI542383537
(lp62
g4
asI242718487
(lp63
g4
asI232989378
(lp64
g4
asI785415704
(lp65
g4
asI127040659
(lp66
g4
asI432894105
(lp67
g4
asI53951646
(lp68
g4
asI22688932
(lp69
g4
asI128996038
(lp70
g14
asI572917415
(lp71
g4
asI242021546
(lp72
g4
asI516399789
(lp73
g4
asI412425392
(lp74
g4
asI22498248
(lp75
g14
asI104578228
(lp76
g4
asI490438516
(lp77
g4
asI52538560
(lp78
g4
asI68212418
(lp79
g4
asI404122822
(lp80
g4
asI1032573127
(lp81
g4
asI473417934
(lp82
g4
asI757952208
(lp83
g4
asI19112146
(lp84
g4
asI411480790
(lp85
g4
asI547074777
(lp86
g4
asI128856794
(lp87
g4
asI275038427
(lp88
g4
asI22410448
(lp89
g4
asI592104162
(lp90
g4
asI229219555
(lp91
g14
asI19964133
(lp92
g4
asI195857126
(lp93
g4
ag12
ag16
ag17
asI602749675
(lp94
g4
asI459490030
(lp95
g4
asI130513136
(lp96
g4
asI85582070
(lp97
g4
asI21889271
(lp98
g4
asI492217594
(lp99
g4
ag14
ag15
ag12
ag16
ag17
asI22523138
(lp100
g4
asI511867139
(lp101
g12
asI919633668
(lp102
g4
asI46123918
(lp103
g14
asI19822855
(lp104
g4
asI488391432
(lp105
g4
asI583851785
(lp106
g4
asI15480075
(lp107
g4
asI239394094
(lp108
g4
asI826090201
(lp109
g4
asI23525656
(lp110
g4
asI131970265
(lp111
g4
asI331256091
(lp112
g4
asI407784666
(lp113
g4
asI998012190
(lp114
g4
asI18492194
(lp115
g4
asI407675685
(lp116
g4
asI20135723
(lp117
g4
asI1074626862
(lp118
g14
asI137634104
(lp119
g4
asI200268496
(lp120
g4
asI457721661
(lp121
g4
asI455905087
(lp122
g4
asI473258307
(lp123
g4
asI36351009
(lp124
g4
asI246358342
(lp125
g4
asI366812641
(lp126
g4
asI257700066
(lp127
g4
asI34069389
(lp128
g4
asI259437393
(lp129
g4
asI224316754
(lp130
g4
asI303269262
(lp131
g4
asI22162774
(lp132
g4
asI478814554
(lp133
g4
asI425873243
(lp134
g4
asI16580325
(lp135
g4
asI30705505
(lp136
g4
asI47754811
(lp137
g4
asI213169508
(lp138
g4
asI90662246
(lp139
g4
asI43928380
(lp140
g4
asI114007914
(lp141
g4
asI18906599
(lp142
g12
asI1079286636
(lp143
g14
asI431106574
(lp144
g4
asI481451886
(lp145
g4
asI96319293
(lp146
g4
asI133537136
(lp147
g4
asI170256753
(lp148
g4
ag14
ag15
ag12
ag16
ag17
asI298723699
(lp149
g4
asI106463604
(lp150
g4
asI405883766
(lp151
g4
asI321549688
(lp152
g4
asI269697915
(lp153
g4
asI36323709
(lp154
g12
asI761686916
(lp155
g4
asI190972806
(lp156
g4
asI220019592
(lp157
g4
asI22800777
(lp158
g4
asI18992010
(lp159
g4
asI900472717
(lp160
g4
asI430754190
(lp161
g4
asI24415120
(lp162
g4
asI452341827
(lp163
g4
asI300874135
(lp164
g4
asI857471384
(lp165
g4
asI259317799
(lp166
g4
asI213229979
(lp167
g4
asI553796509
(lp168
g4
asI817176990
(lp169
g4
ag14
ag15
ag12
ag16
ag17
asI420477765
(lp170
g4
asI448288155
(lp171
g4
asI386791423
(lp172
g4
asI1018050986
(lp173
g14
asI58796971
(lp174
g4
asI499086766
(lp175
g4
asI27933597
(lp176
g4
asI289971633
(lp177
g4
asI554576820
(lp178
g4
asI28452279
(lp179
g4
asI176163743
(lp180
g4
asI555031484
(lp181
g4
asI598526398
(lp182
g4
asI897433675
(lp183
g4
ag12
ag16
ag17
asI14695878
(lp184
g4
asI627403720
(lp185
g4
asI29110219
(lp186
g4
asI29198284
(lp187
g4
asI983389134
(lp188
g4
asI635775959
(lp189
g4
asI582955481
(lp190
g4
asI972687834
(lp191
g4
asI300151261
(lp192
g4
asI249904609
(lp193
g4
asI562770917
(lp194
g4
ag14
ag15
ag12
ag16
ag17
asI18998865
(lp195
g4
asI22643688
(lp196
g4
asI211849298
(lp197
g4
asI521640431
(lp198
g4
asI19594736
(lp199
g4
asI21927925
(lp200
g4
asI35007995
(lp201
g4
asI33531900
(lp202
g4
asI83661141
(lp203
g4
as.