(dp1
I849626112
(lp2
cdatetime
datetime
p3
(S'\x07\xdd\x01\t\x0b\x150\x01\x9fk'
tRp4
asI49945091
(lp5
g4
asI326227972
(lp6
g4
asI155149318
(lp7
g4
asI783289352
(lp8
g4
asI15045643
(lp9
g4
asI17890318
(lp10
g4
asI17190416
(lp11
g4
asI17374296
(lp12
g4
asI17081874
(lp13
g4
asI18598931
(lp14
g4
asI417014293
(lp15
g4
asI406647319
(lp16
g4
asI69398552
(lp17
g4
asI757609466
(lp18
g4
asI127418396
(lp19
g4
asI17416221
(lp20
g4
asI732334110
(lp21
g4
asI352935969
(lp22
g4
asI15439395
(lp23
g4
asI8073252
(lp24
g4
asI249594917
(lp25
g4
asI263757351
(lp26
g4
asI19926057
(lp27
g4
asI85495338
(lp28
g4
asI17736751
(lp29
g4
asI249798704
(lp30
g4
ag3
(S'\x07\xdd\x01\x11\x105\x01\x0b\x9c\xe2'
tRp31
ag3
(S'\x07\xdd\x01\x16\x11\x18\x02\x0c\x87\x98'
tRp32
ag3
(S'\x07\xdd\x01\x18\r\x0b\r\x0b\x92m'
tRp33
ag3
(S'\x07\xdd\x01\x18\x0f\x0c/\x0e\xf2)'
tRp34
asI462728247
(lp35
g4
asI16583736
(lp36
g4
asI453682745
(lp37
g4
asI467486779
(lp38
g4
asI16493630
(lp39
g4
asI15117375
(lp40
g4
asI15794195
(lp41
g4
asI93661762
(lp42
g4
asI158009411
(lp43
g4
asI12185672
(lp44
g4
asI16423692
(lp45
g4
asI321357898
(lp46
g4
asI897433675
(lp47
g4
asI2643021
(lp48
g4
asI43121497
(lp49
g4
asI19409487
(lp50
g4
asI15743570
(lp51
g4
asI914769494
(lp52
g32
ag33
ag34
asI44107863
(lp53
g4
asI50972760
(lp54
g4
asI15600217
(lp55
g4
asI272572507
(lp56
g4
asI14319290
(lp57
g4
asI14523998
(lp58
g4
asI823905
(lp59
g4
asI4488291
(lp60
g4
asI804455
(lp61
g4
asI95479400
(lp62
g4
asI41063
(lp63
g4
asI51134573
(lp64
g4
asI33449582
(lp65
g4
asI60597693
(lp66
g4
asI483786355
(lp67
g4
asI11178612
(lp68
g4
asI14358133
(lp69
g4
asI228008054
(lp70
g4
asI47801463
(lp71
g4
asI22199928
(lp72
g4
asI9274492
(lp73
g4
asI23762559
(lp74
g4
asI15031424
(lp75
g4
asI770022530
(lp76
g4
asI431260291
(lp77
g4
asI166641797
(lp78
g4
asI20345991
(lp79
g4
asI15976584
(lp80
g4
asI14450826
(lp81
g4
asI20161675
(lp82
g4
asI330999154
(lp83
g4
asI46122264
(lp84
g4
ag33
ag34
asI44746389
(lp85
g4
asI289331864
(lp86
g4
asI14956189
(lp87
g4
asI15487646
(lp88
g4
asI373146272
(lp89
g4
asI22724260
(lp90
g4
asI1794731
(lp91
g4
asI14318450
(lp92
g4
asI36027054
(lp93
g4
asI15478959
(lp94
g4
asI604103344
(lp95
g4
asI21143730
(lp96
g4
asI117916339
(lp97
g4
asI19514142
(lp98
g4
asI78816438
(lp99
g4
asI40789176
(lp100
g33
asI475062970
(lp101
g4
asI81161503
(lp102
g4
asI908304572
(lp103
g4
asI85904061
(lp104
g4
asI15448254
(lp105
g4
asI69416849
(lp106
g4
asI372373697
(lp107
g4
asI553367746
(lp108
g4
asI14462411
(lp109
g4
asI46081142
(lp110
g4
asI9931462
(lp111
g4
asI19932359
(lp112
g4
asI17685196
(lp113
g4
asI213429450
(lp114
g4
asI20402379
(lp115
g4
asI778628300
(lp116
g4
asI58477265
(lp117
g4
asI209688787
(lp118
g4
asI752386260
(lp119
g4
asI18277078
(lp120
g4
asI18858712
(lp121
g4
asI14063622
(lp122
g4
asI187734394
(lp123
g4
asI41080548
(lp124
g4
asI813286
(lp125
g4
asI20994791
(lp126
g4
asI20806376
(lp127
g4
asI421669927
(lp128
g4
asI616173
(lp129
g4
asI8633582
(lp130
g4
asI22928111
(lp131
g4
asI13082862
(lp132
g4
asI1295571
(lp133
g4
asI379968246
(lp134
g4
asI48167671
(lp135
g4
asI299725560
(lp136
g4
asI443948281
(lp137
g4
asI44358395
(lp138
g4
asI586856188
(lp139
g4
asI10406142
(lp140
g4
asI75541637
(lp141
g4
asI21590131
(lp142
g4
asI104548239
(lp143
g4
asI16088841
(lp144
g4
asI707650315
(lp145
g4
asI16507148
(lp146
g4
asI89974049
(lp147
g4
asI31408911
(lp148
g4
asI19907345
(lp149
g4
asI15400067
(lp150
g4
asI50243349
(lp151
g4
asI17242926
(lp152
g4
asI78647064
(lp153
g4
asI431259422
(lp154
g4
asI85101855
(lp155
g4
asI14581025
(lp156
g4
asI7879972
(lp157
g4
asI18557318
(lp158
g4
asI95446602
(lp159
g4
asI18312906
(lp160
g4
asI98661161
(lp161
g4
asI62519083
(lp162
g4
asI41081646
(lp163
g4
asI26789680
(lp164
g4
asI53205299
(lp165
g4
asI319798581
(lp166
g4
asI104763702
(lp167
g4
asI15838007
(lp168
g4
asI15179863
(lp169
g4
asI18738311
(lp170
g4
asI38709045
(lp171
g4
asI14467906
(lp172
g4
asI14436676
(lp173
g4
asI12160822
(lp174
g4
asI28571975
(lp175
g4
asI33555785
(lp176
g4
asI18238282
(lp177
g4
asI71082039
(lp178
g4
asI11777362
(lp179
g4
asI429503314
(lp180
g4
asI746323
(lp181
g4
asI35802836
(lp182
g4
asI167320406
(lp183
g4
asI106916183
(lp184
g4
asI37403480
(lp185
g4
asI18015065
(lp186
g4
asI21456730
(lp187
g4
asI147391323
(lp188
g4
asI15162204
(lp189
g4
asI31116125
(lp190
g4
asI14818655
(lp191
g4
asI21979707
(lp192
g4
asI178716004
(lp193
g4
asI17243493
(lp194
g4
asI83665767
(lp195
g4
asI152307050
(lp196
g4
asI178706795
(lp197
g4
asI16141166
(lp198
g4
asI27855727
(lp199
g4
asI53203312
(lp200
g4
asI7684072
(lp201
g4
asI82378098
(lp202
g4
asI14106227
(lp203
g4
asI45495673
(lp204
g4
asI18281850
(lp205
g4
asI16294267
(lp206
g4
asI13996412
(lp207
g4
asI16377749
(lp208
g4
asI26323841
(lp209
g4
asI761731
(lp210
g4
asI20147590
(lp211
g4
asI23134600
(lp212
g4
asI14389132
(lp213
g4
asI233680270
(lp214
g4
asI412077967
(lp215
g4
asI286521615
(lp216
g4
asI151959441
(lp217
g4
asI19355028
(lp218
g4
asI488958190
(lp219
g4
asI7134102
(lp220
g4
asI3060631
(lp221
g4
asI782367588
(lp222
g4
asI14720411
(lp223
g4
asI73173405
(lp224
g4
asI18799571
(lp225
g4
asI45948322
(lp226
g4
asI22471587
(lp227
g4
asI17170265
(lp228
g4
asI12298152
(lp229
g4
asI19027430
(lp230
g4
asI23498668
(lp231
g4
asI213685165
(lp232
g4
asI380143025
(lp233
g4
asI16360370
(lp234
g4
asI74427123
(lp235
g4
ag32
ag33
ag34
asI16632244
(lp236
g4
asI22128566
(lp237
g4
asI898491
(lp238
g4
asI20094909
(lp239
g4
asI14079425
(lp240
g4
asI376704450
(lp241
g4
asI14704715
(lp242
g4
asI134486980
(lp243
g4
asI451913670
(lp244
g4
asI118343627
(lp245
g4
asI305336780
(lp246
g4
asI326848461
(lp247
g4
asI15304145
(lp248
g4
asI50086867
(lp249
g4
asI817657
(lp250
g4
asI53256665
(lp251
g4
asI17512551
(lp252
g4
asI181528029
(lp253
g4
asI14462430
(lp254
g4
asI19849696
(lp255
g4
asI74673
(lp256
g4
asI14271227
(lp257
g4
asI9720292
(lp258
g4
asI52371293
(lp259
g4
asI176901608
(lp260
g4
asI14696425
(lp261
g4
asI41401170
(lp262
g4
asI20865816
(lp263
g4
asI14340595
(lp264
g4
asI241459700
(lp265
g4
asI20058101
(lp266
g4
asI33261446
(lp267
g4
asI110405460
(lp268
g4
asI182894074
(lp269
g4
as.