(dp1
I1006158721
(lp2
cdatetime
datetime
p3
(S'\x07\xdd\x01\t\x0c,\x00\x05G#'
tRp4
asI546085892
(lp5
g4
asI24736901
(lp6
g4
asI325578886
(lp7
g4
asI41469569
(lp8
g4
asI112840201
(lp9
g4
asI138689022
(lp10
g4
asI310393613
(lp11
g4
asI479022478
(lp12
g4
asI87167789
(lp13
g4
asI519604368
(lp14
g4
asI361230356
(lp15
g4
asI454076054
(lp16
g4
asI339534105
(lp17
g4
asI312576793
(lp18
g4
asI968620314
(lp19
g4
asI290044975
(lp20
g4
asI69819418
(lp21
g4
asI285495327
(lp22
g4
asI10928032
(lp23
g4
asI133953445
(lp24
g4
asI576973354
(lp25
g4
asI234891527
(lp26
g4
asI322583469
(lp27
g4
asI520312879
(lp28
g4
asI211571251
(lp29
g4
asI124479773
(lp30
g4
asI63727285
(lp31
g4
asI620468792
(lp32
g4
asI972526452
(lp33
g4
asI404246586
(lp34
g4
asI538974303
(lp35
g4
asI96787773
(lp36
g4
asI299248626
(lp37
g4
asI804123074
(lp38
g4
ag3
(S'\x07\xdd\x01\x11\x145\x01\x04)\xb0'
tRp39
asI172258371
(lp40
g4
asI524220486
(lp41
g4
asI564701640
(lp42
g4
asI241525705
(lp43
g4
asI531683422
(lp44
g39
asI897433675
(lp45
g4
asI18164940
(lp46
g4
asI119873103
(lp47
g4
asI253642552
(lp48
g4
asI283997013
(lp49
g4
asI42910039
(lp50
g4
asI263593688
(lp51
g4
asI580977241
(lp52
g4
asI188209114
(lp53
g4
asI501611100
(lp54
g4
asI453363322
(lp55
g4
asI9266142
(lp56
g4
asI16497119
(lp57
g4
asI14731998
(lp58
g4
asI550716001
(lp59
g4
asI851975654
(lp60
g4
asI612586726
(lp61
g4
asI710979817
(lp62
g4
asI703870442
(lp63
g4
asI482878829
(lp64
g4
asI337791986
(lp65
g4
asI185190771
(lp66
g39
asI102103924
(lp67
g4
asI203654782
(lp68
g4
asI742778744
(lp69
g4
asI364183546
(lp70
g4
asI281980586
(lp71
g4
asI426785406
(lp72
g4
as.