(dp1
I105623556
(lp2
cdatetime
datetime
p3
(S'\x07\xdd\x01\t\x0c,\x00\x05G#'
tRp4
asI15109462
(lp5
g4
asI274567177
(lp6
g4
asI47296522
(lp7
g4
asI125827086
(lp8
g4
asI15872017
(lp9
g4
asI45203474
(lp10
g4
asI10938372
(lp11
g4
asI831602718
(lp12
g4
asI128143365
(lp13
g3
(S'\x07\xdd\x01\x11\x105\x01\x0b\x9c\xe2'
tRp14
asI290517680
(lp15
g4
asI23046181
(lp16
g4
asI898495153
(lp17
g14
asI17668136
(lp18
g4
asI76961834
(lp19
g4
asI480759859
(lp20
g4
ag14
asI15831093
(lp21
g4
asI38023227
(lp22
g4
asI26302524
(lp23
g4
asI96811071
(lp24
g14
asI375676992
(lp25
g4
asI298604610
(lp26
g4
asI14481475
(lp27
g4
asI897433675
(lp28
g4
asI151961677
(lp29
g4
asI21047374
(lp30
g4
asI140337232
(lp31
g4
asI77715537
(lp32
g4
asI15257682
(lp33
g4
asI116834388
(lp34
g4
asI135878747
(lp35
g4
ag14
asI358039647
(lp36
g4
asI608295952
(lp37
g4
asI14788707
(lp38
g4
asI202168420
(lp39
g4
asI24162405
(lp40
g4
asI128921707
(lp41
g4
ag14
asI761589870
(lp42
g4
asI23263345
(lp43
g4
asI19902580
(lp44
g4
asI430137461
(lp45
g4
asI612692093
(lp46
g4
asI20328579
(lp47
g4
asI769456262
(lp48
g4
asI319343981
(lp49
g4
asI408520849
(lp50
g4
asI728986650
(lp51
g4
asI486002848
(lp52
g4
asI34019494
(lp53
g4
asI476483757
(lp54
g4
asI5185711
(lp55
g4
asI141553840
(lp56
g4
asI37673137
(lp57
g4
asI705790130
(lp58
g4
asI50043061
(lp59
g4
asI16371895
(lp60
g4
asI253771961
(lp61
g4
asI15298751
(lp62
g4
asI41191619
(lp63
g4
asI962281164
(lp64
g4
asI19417297
(lp65
g4
asI214272214
(lp66
g4
asI97450200
(lp67
g4
asI14444765
(lp68
g4
asI61663
(lp69
g4
asI17840357
(lp70
g4
asI589992167
(lp71
g4
asI368357610
(lp72
g4
asI18360560
(lp73
g4
asI20343025
(lp74
g4
asI21926270
(lp75
g4
asI16221225
(lp76
g4
asI26824077
(lp77
g4
asI373467387
(lp78
g4
asI195891455
(lp79
g4
asI431993089
(lp80
g4
asI92741896
(lp81
g4
asI45910283
(lp82
g4
asI13443342
(lp83
g4
asI16795919
(lp84
g4
asI16906514
(lp85
g4
asI387672339
(lp86
g4
asI127330590
(lp87
g4
asI164659489
(lp88
g4
asI262398243
(lp89
g4
asI268110123
(lp90
g4
asI93251884
(lp91
g4
asI387328303
(lp92
g4
asI219130161
(lp93
g4
asI84539704
(lp94
g4
asI22341950
(lp95
g4
asI14324031
(lp96
g4
asI13492552
(lp97
g4
asI117879116
(lp98
g4
asI211929421
(lp99
g4
asI47736205
(lp100
g4
asI796560782
(lp101
g4
asI246103
(lp102
g14
asI184985946
(lp103
g4
asI333486433
(lp104
g4
asI438671717
(lp105
g4
asI12177772
(lp106
g4
asI15085970
(lp107
g4
asI29493630
(lp108
g4
asI3062151
(lp109
g4
asI145600904
(lp110
g4
asI20930959
(lp111
g4
asI7977362
(lp112
g4
asI224198041
(lp113
g4
asI861458846
(lp114
g4
asI428687778
(lp115
g4
asI161333672
(lp116
g4
asI2331061
(lp117
g4
asI407703993
(lp118
g4
asI19204539
(lp119
g4
asI41081280
(lp120
g4
asI14943648
(lp121
g4
asI383098443
(lp122
g4
asI843495883
(lp123
g4
asI192192982
(lp124
g4
asI38027735
(lp125
g4
asI52566488
(lp126
g4
asI22929882
(lp127
g4
asI86018526
(lp128
g4
asI24609568
(lp129
g4
asI84154448
(lp130
g4
asI165149157
(lp131
g4
asI64846311
(lp132
g4
asI256432616
(lp133
g4
asI391248361
(lp134
g14
asI364409323
(lp135
g4
asI7526892
(lp136
g4
asI112800240
(lp137
g4
asI14868904
(lp138
g4
asI457452627
(lp139
g4
asI20351482
(lp140
g4
asI486889981
(lp141
g4
asI14508549
(lp142
g14
asI297613833
(lp143
g4
asI21250571
(lp144
g4
asI45711887
(lp145
g4
asI50291217
(lp146
g4
asI14354179
(lp147
g4
asI75319835
(lp148
g4
asI44720671
(lp149
g4
asI295186978
(lp150
g4
asI1051171
(lp151
g4
asI162722341
(lp152
g4
asI20851240
(lp153
g4
asI533973545
(lp154
g4
asI26493482
(lp155
g4
asI541958701
(lp156
g4
asI53053999
(lp157
g4
asI95918640
(lp158
g4
asI20376113
(lp159
g4
asI79221306
(lp160
g4
asI296667709
(lp161
g4
asI244648513
(lp162
g4
asI512354885
(lp163
g4
asI19278408
(lp164
g4
asI1735241
(lp165
g4
asI87468619
(lp166
g4
asI14072398
(lp167
g4
asI462637648
(lp168
g4
asI36930131
(lp169
g4
asI102081116
(lp170
g4
asI918557280
(lp171
g4
asI845800034
(lp172
g4
asI39930469
(lp173
g4
asI5399142
(lp174
g4
asI16343659
(lp175
g4
asI319277680
(lp176
g4
asI15110769
(lp177
g4
asI917371507
(lp178
g4
asI14578294
(lp179
g4
asI492763770
(lp180
g4
asI17916539
(lp181
g4
asI226284158
(lp182
g4
asI18729408
(lp183
g4
asI123867780
(lp184
g4
asI230607494
(lp185
g4
asI73380487
(lp186
g4
asI23130762
(lp187
g4
asI145928844
(lp188
g4
asI15063345
(lp189
g4
asI31363730
(lp190
g4
asI18282606
(lp191
g4
asI985526934
(lp192
g4
asI57888537
(lp193
g4
asI131277473
(lp194
g4
asI10029732
(lp195
g4
asI389450416
(lp196
g4
asI967931622
(lp197
g14
asI536404662
(lp198
g4
asI133800631
(lp199
g4
asI579885760
(lp200
g4
asI80009921
(lp201
g4
asI552006339
(lp202
g4
asI25696968
(lp203
g4
asI550552269
(lp204
g4
asI108286674
(lp205
g4
asI21241637
(lp206
g4
asI273005280
(lp207
g4
asI407945968
(lp208
g4
asI19129073
(lp209
g4
asI19530485
(lp210
g4
asI9669372
(lp211
g4
asI128346877
(lp212
g4
asI276556928
(lp213
g4
asI235160322
(lp214
g4
asI222577413
(lp215
g4
asI258736912
(lp216
g4
asI15440344
(lp217
g4
asI236550275
(lp218
g4
asI106384149
(lp219
g4
asI48284445
(lp220
g4
asI116482846
(lp221
g4
asI76208928
(lp222
g4
asI53103401
(lp223
g4
asI14576426
(lp224
g4
asI14691117
(lp225
g4
asI14353202
(lp226
g4
asI8170292
(lp227
g4
asI918827838
(lp228
g4
asI194081605
(lp229
g4
asI24601418
(lp230
g4
asI112841547
(lp231
g4
asI15143758
(lp232
g4
asI600771412
(lp233
g4
asI250745689
(lp234
g4
asI14953306
(lp235
g4
asI73239389
(lp236
g4
asI376662501
(lp237
g4
asI345131873
(lp238
g4
asI218321766
(lp239
g4
asI241185642
(lp240
g4
asI156763965
(lp241
g4
asI16421352
(lp242
g4
asI201876338
(lp243
g4
asI330341773
(lp244
g4
asI58909569
(lp245
g4
asI147469927
(lp246
g4
asI16085894
(lp247
g4
asI18553324
(lp248
g4
asI575204243
(lp249
g4
asI256484247
(lp250
g4
asI18015128
(lp251
g4
asI897805218
(lp252
g4
asI815936419
(lp253
g4
asI220466090
(lp254
g4
asI177998768
(lp255
g4
asI833364913
(lp256
g4
asI15008691
(lp257
g4
asI42394549
(lp258
g4
asI80385525
(lp259
g4
asI632044483
(lp260
g4
asI377553862
(lp261
g4
asI717972008
(lp262
g4
asI454478802
(lp263
g4
asI35720149
(lp264
g4
asI33207256
(lp265
g4
asI240991194
(lp266
g4
asI20394971
(lp267
g4
asI326450140
(lp268
g4
asI74865632
(lp269
g4
asI72074215
(lp270
g4
asI17295536
(lp271
g4
asI319349245
(lp272
g4
asI957619188
(lp273
g4
asI65594358
(lp274
g4
asI18204500
(lp275
g4
asI41145341
(lp276
g4
asI103676929
(lp277
g14
asI328944643
(lp278
g4
asI81656841
(lp279
g14
asI472056846
(lp280
g4
asI19629072
(lp281
g4
asI468821010
(lp282
g4
asI17536020
(lp283
g4
asI570782741
(lp284
g4
asI16561178
(lp285
g4
asI17239073
(lp286
g4
asI15729704
(lp287
g4
asI190604329
(lp288
g4
asI149439530
(lp289
g4
asI20570290
(lp290
g4
asI14154589
(lp291
g4
asI324336689
(lp292
g4
asI820280
(lp293
g4
asI33883195
(lp294
g4
asI23862338
(lp295
g4
asI261217348
(lp296
g4
asI217885776
(lp297
g4
asI215309395
(lp298
g4
asI14521428
(lp299
g4
asI72251056
(lp300
g4
asI405226588
(lp301
g4
asI164813923
(lp302
g4
asI12874852
(lp303
g4
asI116511848
(lp304
g4
asI48471148
(lp305
g4
asI17751869
(lp306
g4
asI534172789
(lp307
g4
asI197538939
(lp308
g4
asI20466813
(lp309
g4
asI40731774
(lp310
g4
asI801713280
(lp311
g4
asI198626433
(lp312
g4
asI82304133
(lp313
g4
asI534563976
(lp314
g4
asI16911502
(lp315
g4
asI33977491
(lp316
g4
asI84317334
(lp317
g4
asI16673943
(lp318
g4
asI267961496
(lp319
g4
asI60341409
(lp320
g4
asI348550308
(lp321
g4
asI16225446
(lp322
g4
asI146359463
(lp323
g4
asI138063020
(lp324
g4
asI30350524
(lp325
g4
asI538322769
(lp326
g4
asI55059675
(lp327
g4
asI493872352
(lp328
g4
asI21949666
(lp329
g4
asI178310372
(lp330
g4
asI310947047
(lp331
g4
asI23655659
(lp332
g4
asI20737261
(lp333
g4
asI20229359
(lp334
g4
asI41151016
(lp335
g4
asI61467891
(lp336
g4
asI305130740
(lp337
g4
asI23582249
(lp338
g4
asI49790200
(lp339
g4
asI142036218
(lp340
g4
asI19688700
(lp341
g4
asI176538880
(lp342
g4
asI22347010
(lp343
g4
asI849822986
(lp344
g4
asI14363915
(lp345
g4
asI21239054
(lp346
g4
asI297962769
(lp347
g4
asI365796632
(lp348
g4
asI23336456
(lp349
g4
asI615171362
(lp350
g4
asI13716772
(lp351
g4
asI100238634
(lp352
g4
asI239557931
(lp353
g4
asI14216497
(lp354
g4
asI19318068
(lp355
g4
asI251815223
(lp356
g4
asI215756090
(lp357
g4
asI891475260
(lp358
g4
ag14
asI107887935
(lp359
g4
asI6137152
(lp360
g4
asI33322305
(lp361
g4
asI31120708
(lp362
g4
asI120218951
(lp363
g4
asI47715658
(lp364
g4
asI367246669
(lp365
g4
asI137686351
(lp366
g4
asI1520981
(lp367
g4
asI52815190
(lp368
g4
asI46855511
(lp369
g4
asI8592732
(lp370
g4
asI10274142
(lp371
g4
asI39371633
(lp372
g4
asI475897744
(lp373
g4
asI414524774
(lp374
g4
asI626371944
(lp375
g4
asI354323817
(lp376
g4
asI586493290
(lp377
g4
asI15783143
(lp378
g4
asI40947053
(lp379
g4
asI48784750
(lp380
g4
asI23313775
(lp381
g4
asI19539314
(lp382
g4
asI85138805
(lp383
g4
asI86392183
(lp384
g4
asI50324859
(lp385
g4
asI338302332
(lp386
g4
asI580720003
(lp387
g4
asI68552069
(lp388
g4
asI119802433
(lp389
g4
asI18273674
(lp390
g4
asI34305421
(lp391
g4
asI75914638
(lp392
g4
asI432801176
(lp393
g4
asI207717785
(lp394
g4
asI397882781
(lp395
g4
asI128916896
(lp396
g4
asI113034662
(lp397
g4
asI10995112
(lp398
g4
ag14
asI21109320
(lp399
g4
asI180938171
(lp400
g4
asI539065795
(lp401
g4
asI339193295
(lp402
g4
asI15197091
(lp403
g4
asI27600340
(lp404
g4
asI271078873
(lp405
g4
asI147707355
(lp406
g4
asI370859487
(lp407
g4
asI217697767
(lp408
g4
asI87066092
(lp409
g4
asI5680622
(lp410
g4
asI409329136
(lp411
g4
ag14
asI485033461
(lp412
g4
asI8883702
(lp413
g4
asI805230505
(lp414
g4
asI16612857
(lp415
g4
asI17405435
(lp416
g4
asI96599552
(lp417
g4
asI211717634
(lp418
g4
asI24679944
(lp419
g4
asI271625737
(lp420
g4
asI32673296
(lp421
g4
asI451708433
(lp422
g4
asI40875741
(lp423
g4
asI305921562
(lp424
g4
asI362724902
(lp425
g4
asI28161577
(lp426
g4
asI946681393
(lp427
g4
asI289379890
(lp428
g4
asI376895030
(lp429
g4
asI31465017
(lp430
g4
asI61107773
(lp431
g4
asI22072900
(lp432
g14
asI211729995
(lp433
g4
asI93152851
(lp434
g4
asI14544468
(lp435
g4
asI145493595
(lp436
g4
asI37686879
(lp437
g4
asI86007399
(lp438
g4
asI38299243
(lp439
g4
asI135118457
(lp440
g4
asI42374778
(lp441
g4
asI21671551
(lp442
g4
asI516687489
(lp443
g4
asI38241922
(lp444
g4
asI82462315
(lp445
g4
asI191827591
(lp446
g4
asI32904841
(lp447
g4
asI164204172
(lp448
g4
asI155264653
(lp449
g4
asI86752195
(lp450
g4
asI29435542
(lp451
g4
asI13012632
(lp452
g4
asI179607194
(lp453
g4
asI491447964
(lp454
g4
asI16905891
(lp455
g4
asI632039078
(lp456
g4
asI169623208
(lp457
g4
asI12480172
(lp458
g4
asI363986607
(lp459
g4
asI360160944
(lp460
g4
asI602232504
(lp461
g4
asI50757305
(lp462
g4
asI17909434
(lp463
g4
asI386109391
(lp464
g4
asI223301580
(lp465
g4
asI23977676
(lp466
g4
asI210423504
(lp467
g4
asI983318228
(lp468
g4
asI615284440
(lp469
g4
asI16664281
(lp470
g4
asI17184475
(lp471
g4
asI272545501
(lp472
g4
asI132353765
(lp473
g4
asI300177126
(lp474
g4
asI43405036
(lp475
g4
asI616173
(lp476
g4
asI40472302
(lp477
g4
asI29961971
(lp478
g4
asI162146050
(lp479
g4
asI251809067
(lp480
g4
asI75261702
(lp481
g4
asI93845265
(lp482
g4
asI144996115
(lp483
g4
asI18863894
(lp484
g4
asI542848793
(lp485
g4
asI48828186
(lp486
g4
asI1012139803
(lp487
g4
asI747047516
(lp488
g4
asI15748899
(lp489
g4
asI280897317
(lp490
g4
asI18913585
(lp491
g4
asI739293
(lp492
g14
asI114163516
(lp493
g4
asI361223997
(lp494
g4
asI15787841
(lp495
g4
asI130977604
(lp496
g4
ag14
asI189531975
(lp497
g4
asI249997128
(lp498
g4
asI367986506
(lp499
g4
asI29300560
(lp500
g4
asI79669073
(lp501
g4
asI53806931
(lp502
g4
asI490637140
(lp503
g4
asI18507607
(lp504
g4
asI225390424
(lp505
g4
asI16047963
(lp506
g4
asI185349986
(lp507
g4
asI593737020
(lp508
g4
asI25817063
(lp509
g4
asI18186092
(lp510
g4
asI89697161
(lp511
g4
asI48631668
(lp512
g4
asI19870015
(lp513
g4
asI78045845
(lp514
g4
asI19826561
(lp515
g4
asI249788294
(lp516
g4
asI78229384
(lp517
g4
asI15007625
(lp518
g4
asI251006860
(lp519
g4
asI249497487
(lp520
g4
asI491462544
(lp521
g4
asI388484760
(lp522
g4
asI543674265
(lp523
g4
asI213243802
(lp524
g4
asI12459932
(lp525
g4
asI492677033
(lp526
g4
asI277751724
(lp527
g4
asI21911470
(lp528
g4
asI203567025
(lp529
g4
asI20543416
(lp530
g4
asI261588925
(lp531
g4
asI117807052
(lp532
g4
asI500644173
(lp533
g4
asI197820372
(lp534
g4
asI14335957
(lp535
g4
asI107415511
(lp536
g4
asI23035864
(lp537
g4
asI223938525
(lp538
g4
asI39995364
(lp539
g4
asI23478246
(lp540
g4
asI18075623
(lp541
g4
asI43620332
(lp542
g4
asI19181549
(lp543
g14
asI78047214
(lp544
g4
asI527605747
(lp545
g4
ag14
asI46096376
(lp546
g4
asI66666837
(lp547
g4
as.