(dp1
I8168962
(lp2
cdatetime
datetime
p3
(S'\x07\xdd\x01\t\x0f$\x07\x00\xdd\xc8'
tRp4
asI24879112
(lp5
g4
asI15827470
(lp6
g4
asI180114960
(lp7
g4
asI11669522
(lp8
g4
asI833805847
(lp9
g4
asI13011482
(lp10
g4
asI58742447
(lp11
g4
asI54129186
(lp12
g4
asI26585636
(lp13
g4
asI304515110
(lp14
g4
asI19135528
(lp15
g4
asI465890857
(lp16
g4
asI302652459
(lp17
g4
asI14660142
(lp18
g4
asI18188847
(lp19
g4
asI1008529968
(lp20
g4
asI38494776
(lp21
g4
asI21516857
(lp22
g4
asI36966461
(lp23
g4
asI14048321
(lp24
g4
asI239194183
(lp25
g4
asI403372616
(lp26
g4
asI364331593
(lp27
g4
asI115191882
(lp28
g4
asI888259664
(lp29
g4
asI90325585
(lp30
g4
asI28945493
(lp31
g4
asI257037910
(lp32
g4
asI14092380
(lp33
g4
asI48295005
(lp34
g4
asI22224737
(lp35
g4
asI297044577
(lp36
g4
asI977913499
(lp37
g4
asI167346791
(lp38
g4
asI331902573
(lp39
g4
asI207774830
(lp40
g4
asI87645300
(lp41
g4
asI14578294
(lp42
g4
asI85906552
(lp43
g4
asI20423295
(lp44
g4
asI401576064
(lp45
g4
asI24736901
(lp46
g4
asI82463878
(lp47
g4
asI534563976
(lp48
g4
asI40362638
(lp49
g4
asI79190672
(lp50
g4
asI8260242
(lp51
g4
asI128508055
(lp52
g4
asI33696409
(lp53
g4
asI908552858
(lp54
g4
asI74832539
(lp55
g4
asI884424865
(lp56
g4
asI1076180131
(lp57
g3
(S'\x07\xdd\x01\x11\x145\x01\x04)\xb0'
tRp58
asI103251112
(lp59
g4
asI20846251
(lp60
g4
asI403607212
(lp61
g4
asI367553709
(lp62
g4
asI1110191
(lp63
g4
asI303564469
(lp64
g4
asI40183478
(lp65
g4
asI208789178
(lp66
g4
asI359677119
(lp67
g4
asI219145409
(lp68
g4
asI14960835
(lp69
g4
asI78589126
(lp70
g4
asI577289927
(lp71
g4
asI29509834
(lp72
g4
asI14140619
(lp73
g4
asI135213262
(lp74
g4
asI865730509
(lp75
g4
asI148805843
(lp76
g4
asI227041493
(lp77
g4
asI2254561
(lp78
g4
asI347799267
(lp79
g4
asI18805477
(lp80
g4
asI28776166
(lp81
g4
asI8947432
(lp82
g4
asI7330542
(lp83
g4
asI28134130
(lp84
g4
asI7114622
(lp85
g4
asI216945365
(lp86
g4
asI77021952
(lp87
g4
asI175535879
(lp88
g4
asI2566921
(lp89
g4
asI23888653
(lp90
g4
asI544408335
(lp91
g4
asI51823376
(lp92
g4
asI46791955
(lp93
g4
asI181112088
(lp94
g4
asI429800217
(lp95
g4
asI193986607
(lp96
g4
asI18667292
(lp97
g4
asI327859486
(lp98
g4
asI31996703
(lp99
g4
asI17022243
(lp100
g4
asI22267172
(lp101
g4
asI166208295
(lp102
g4
asI18560812
(lp103
g4
asI174490927
(lp104
g4
asI606105909
(lp105
g4
asI372213129
(lp106
g4
asI19647801
(lp107
g4
asI7047482
(lp108
g4
asI427016514
(lp109
g4
asI242611012
(lp110
g4
asI221460294
(lp111
g4
asI14759239
(lp112
g4
asI58631564
(lp113
g4
asI7739722
(lp114
g4
asI228631886
(lp115
g4
asI151517581
(lp116
g4
asI71470929
(lp117
g4
asI83960547
(lp118
g4
asI801593
(lp119
g4
asI225390424
(lp120
g4
asI18975581
(lp121
g4
asI373772638
(lp122
g4
asI135945569
(lp123
g4
asI18413922
(lp124
g4
asI197684961
(lp125
g4
asI18421092
(lp126
g4
asI14583144
(lp127
g4
asI261515114
(lp128
g4
asI15617511
(lp129
g4
asI329504569
(lp130
g4
asI152679279
(lp131
g4
asI27974512
(lp132
g4
asI172626298
(lp133
g4
asI1021467516
(lp134
g4
asI516034430
(lp135
g4
asI807594367
(lp136
g4
asI13192
(lp137
g4
asI89191817
(lp138
g4
asI309044108
(lp139
g4
asI73443213
(lp140
g4
asI290606478
(lp141
g4
asI167995794
(lp142
g4
asI129550235
(lp143
g4
asI14943648
(lp144
g4
asI26970530
(lp145
g4
asI17092251
(lp146
g4
asI432159581
(lp147
g58
asI220466090
(lp148
g4
asI14322017
(lp149
g4
asI15323504
(lp150
g4
asI39062967
(lp151
g4
asI10414152
(lp152
g4
asI246128569
(lp153
g4
asI46094049
(lp154
g4
asI499774912
(lp155
g4
asI299795910
(lp156
g4
asI276127181
(lp157
g4
asI323539406
(lp158
g4
asI21723017
(lp159
g4
asI90306518
(lp160
g4
asI16067035
(lp161
g4
asI183072220
(lp162
g4
asI424687471
(lp163
g4
asI86626503
(lp164
g4
asI267333600
(lp165
g4
asI19114465
(lp166
g4
asI681443
(lp167
g4
asI259321318
(lp168
g4
asI29469671
(lp169
g4
asI254482932
(lp170
g4
asI15186409
(lp171
g4
asI36623343
(lp172
g4
asI618910195
(lp173
g4
asI957619188
(lp174
g4
asI855463927
(lp175
g4
asI350729721
(lp176
g58
asI460302846
(lp177
g4
as.