(dp1
I79192064
(lp2
cdatetime
datetime
p3
(S'\x07\xdd\x01\x08\x0f\x1a\x14\x07\x93\t'
tRp4
asI46575617
(lp5
g4
asI11984902
(lp6
g4
asI66493441
(lp7
g4
asI81893385
(lp8
g4
asI117577738
(lp9
g4
asI14610444
(lp10
g4
asI142940173
(lp11
g4
asI111659023
(lp12
g4
asI139628560
(lp13
g4
asI269014360
(lp14
g4
asI185978898
(lp15
g4
asI126011412
(lp16
g4
asI127039513
(lp17
g4
asI22755356
(lp18
g4
asI11243552
(lp19
g4
asI21413921
(lp20
g4
asI23046181
(lp21
g4
asI95518758
(lp22
g4
asI300376105
(lp23
g4
asI109643818
(lp24
g4
asI21307435
(lp25
g4
asI138276910
(lp26
g4
asI258560048
(lp27
g4
asI2086961
(lp28
g4
asI202924082
(lp29
g4
asI19109940
(lp30
g4
asI247306295
(lp31
g4
asI266907709
(lp32
g4
asI71964734
(lp33
g4
asI14626880
(lp34
g4
asI44462151
(lp35
g4
asI51325000
(lp36
g4
asI897433675
(lp37
g4
asI85141581
(lp38
g4
asI83716451
(lp39
g4
asI90685524
(lp40
g4
asI41898073
(lp41
g4
asI32303195
(lp42
g4
asI35649630
(lp43
g4
asI157430117
(lp44
g4
asI39401575
(lp45
g4
asI245893224
(lp46
g4
asI38246506
(lp47
g4
asI21176429
(lp48
g4
asI128344175
(lp49
g4
asI301244528
(lp50
g4
asI619485298
(lp51
g4
asI237833762
(lp52
g4
asI1788021
(lp53
g4
asI77794324
(lp54
g4
asI148607100
(lp55
g4
asI461023805
(lp56
g4
asI159250559
(lp57
g4
asI129079424
(lp58
g4
asI308183170
(lp59
g4
asI66619528
(lp60
g4
asI217442441
(lp61
g4
asI565899403
(lp62
g4
asI53717698
(lp63
g4
asI179136656
(lp64
g4
asI559532181
(lp65
g4
asI225810582
(lp66
g4
asI29122711
(lp67
g4
asI23943320
(lp68
g4
asI138248351
(lp69
g4
asI133841947
(lp70
g4
asI220324005
(lp71
g4
asI822702247
(lp72
g4
asI12447912
(lp73
g4
asI79052969
(lp74
g4
asI71317191
(lp75
g4
asI20717743
(lp76
g4
asI14297266
(lp77
g4
asI329167031
(lp78
g4
asI41232570
(lp79
g4
asI42748093
(lp80
g4
asI105830593
(lp81
g4
asI78385346
(lp82
g4
asI238620871
(lp83
g4
asI122702025
(lp84
g4
asI172392651
(lp85
g4
asI318777549
(lp86
g4
ag3
(S'\x07\xdd\x01\x0f\x12\x0b\x01\x0e\x81\x83'
tRp87
ag3
(S'\x07\xdd\x01\x12\x0c5\x03\x0c!Z'
tRp88
ag3
(S'\x07\xdd\x01\x18\r\x0b\r\x0b\x92m'
tRp89
ag3
(S'\x07\xdd\x01\x18\x0e2\x02\x0cx\x94'
tRp90
asI216910030
(lp91
g4
asI402344149
(lp92
g4
asI125386966
(lp93
g4
asI109820126
(lp94
g4
asI31281376
(lp95
g4
asI293718395
(lp96
g4
asI104480996
(lp97
g4
asI61194278
(lp98
g4
asI335339751
(lp99
g4
asI320393450
(lp100
g4
asI10991852
(lp101
g4
asI32153839
(lp102
g4
asI85197040
(lp103
g4
asI426260722
(lp104
g4
asI108464372
(lp105
g4
asI587073782
(lp106
g4
asI144053289
(lp107
g4
asI17590655
(lp108
g4
asI232626428
(lp109
g4
asI5294122
(lp110
g4
asI66382080
(lp111
g4
asI127561985
(lp112
g4
asI84003074
(lp113
g4
asI531017988
(lp114
g4
asI36389125
(lp115
g4
asI15474951
(lp116
g4
asI180617483
(lp117
g4
asI325880076
(lp118
g4
asI214225167
(lp119
g4
asI346638609
(lp120
g4
asI29710616
(lp121
g4
asI253239577
(lp122
g4
asI68823326
(lp123
g4
asI74179291
(lp124
g4
asI214661412
(lp125
g4
asI410380589
(lp126
g4
asI85421789
(lp127
g4
asI215124272
(lp128
g4
asI205824307
(lp129
g4
asI99592500
(lp130
g4
asI95148341
(lp131
g4
asI278485303
(lp132
g4
asI16061492
(lp133
g4
asI403595578
(lp134
g4
asI154296635
(lp135
g4
asI38562109
(lp136
g4
asI23130430
(lp137
g4
asI95787319
(lp138
g4
asI68905283
(lp139
g4
asI605929797
(lp140
g4
asI16679238
(lp141
g4
asI41269575
(lp142
g4
asI5402952
(lp143
g4
asI79327561
(lp144
g4
asI215980363
(lp145
g4
asI96422220
(lp146
g4
asI570147150
(lp147
g4
asI99713
(lp148
g4
asI33454417
(lp149
g4
asI302068451
(lp150
g4
asI332597646
(lp151
g4
asI43745625
(lp152
g4
asI308756826
(lp153
g4
asI633936219
(lp154
g4
asI805028190
(lp155
g4
asI792533347
(lp156
g4
asI513554788
(lp157
g4
asI181021029
(lp158
g4
asI295426409
(lp159
g4
asI15819114
(lp160
g4
asI20226412
(lp161
g4
asI132301166
(lp162
g4
asI123355503
(lp163
g4
asI563224946
(lp164
g4
asI54657403
(lp165
g4
asI75391358
(lp166
g4
asI22323583
(lp167
g4
asI245541248
(lp168
g4
asI10789252
(lp169
g4
asI17018913
(lp170
g4
asI83642759
(lp171
g4
asI356735368
(lp172
g4
asI84939146
(lp173
g4
asI75645326
(lp174
g4
asI202242797
(lp175
g4
asI95371665
(lp176
g4
asI75108756
(lp177
g4
asI134867349
(lp178
g4
asI41734551
(lp179
g4
asI240751001
(lp180
g4
asI328458650
(lp181
g4
asI410823069
(lp182
g4
asI162769312
(lp183
g4
asI117416355
(lp184
g4
asI174864805
(lp185
g4
asI15452231
(lp186
g4
asI236653981
(lp187
g4
asI66718132
(lp188
g4
asI55733
(lp189
g4
asI438905272
(lp190
g4
asI30366140
(lp191
g4
asI999905730
(lp192
g4
asI216820163
(lp193
g4
asI380701125
(lp194
g4
asI159783368
(lp195
g4
asI1077250507
(lp196
g88
asI43808342
(lp197
g4
asI17439182
(lp198
g4
asI175520208
(lp199
g4
asI213630712
(lp200
g4
asI11196882
(lp201
g4
asI55828899
(lp202
g4
asI90692053
(lp203
g4
asI13189592
(lp204
g89
asI554779100
(lp205
g4
asI18235813
(lp206
g4
asI70485072
(lp207
g4
asI17021413
(lp208
g4
asI101507558
(lp209
g4
asI153297386
(lp210
g4
asI139986343
(lp211
g4
asI228576559
(lp212
g4
asI258546164
(lp213
g4
asI67054071
(lp214
g4
ag87
ag88
ag89
ag90
asI15458812
(lp215
g4
asI453466623
(lp216
g4
asI114665985
(lp217
g4
asI331581954
(lp218
g4
asI20216323
(lp219
g4
asI475718148
(lp220
g4
asI24990215
(lp221
g4
asI19341833
(lp222
g4
asI224354830
(lp223
g4
asI271942159
(lp224
g4
asI18789893
(lp225
g4
asI203614742
(lp226
g4
asI138899545
(lp227
g4
asI207274520
(lp228
g4
asI3346971
(lp229
g4
asI14379548
(lp230
g4
asI26628637
(lp231
g4
asI211499550
(lp232
g4
asI912338352
(lp233
g4
asI325886473
(lp234
g4
asI137806373
(lp235
g4
asI255641009
(lp236
g4
asI22551081
(lp237
g4
asI77363755
(lp238
g4
asI48364078
(lp239
g4
asI91333167
(lp240
g4
asI59064881
(lp241
g4
asI276537909
(lp242
g4
asI202613302
(lp243
g89
asI265790010
(lp244
g4
asI15527007
(lp245
g4
asI19489341
(lp246
g4
asI170517054
(lp247
g4
asI66763332
(lp248
g4
asI56705609
(lp249
g4
asI309783114
(lp250
g4
asI41051575
(lp251
g4
asI36092492
(lp252
g4
asI79006286
(lp253
g4
asI16634447
(lp254
g4
asI238436945
(lp255
g4
asI224901715
(lp256
g4
asI22446676
(lp257
g4
asI114397781
(lp258
g4
asI142977623
(lp259
g4
asI188843108
(lp260
g4
asI91896411
(lp261
g4
asI244722268
(lp262
g4
asI280693341
(lp263
g87
asI18948706
(lp264
g4
asI93758052
(lp265
g4
asI53791333
(lp266
g4
asI524601960
(lp267
g4
asI259045994
(lp268
g4
asI106932851
(lp269
g4
asI269859445
(lp270
g4
asI177965688
(lp271
g4
asI209314425
(lp272
g4
asI44749437
(lp273
g4
asI472736386
(lp274
g4
asI87247979
(lp275
g4
asI389476118
(lp276
g4
asI3906191
(lp277
g4
asI20777617
(lp278
g4
asI54000274
(lp279
g4
asI119200403
(lp280
g4
asI139295380
(lp281
g4
asI148339349
(lp282
g4
asI379558550
(lp283
g4
asI233200280
(lp284
g4
asI15112859
(lp285
g4
asI63992478
(lp286
g4
asI96225955
(lp287
g4
asI286378664
(lp288
g4
asI471089948
(lp289
g4
asI47338162
(lp290
g4
asI45410997
(lp291
g4
asI124195512
(lp292
g4
asI875815609
(lp293
g4
asI490631867
(lp294
g4
asI20630205
(lp295
g4
asI344347326
(lp296
g4
asI23014082
(lp297
g4
asI143549123
(lp298
g4
asI286991045
(lp299
g4
asI57078471
(lp300
g4
asI7056162
(lp301
g4
asI331248334
(lp302
g4
asI236919506
(lp303
g4
asI65325518
(lp304
g4
asI156097316
(lp305
g4
asI15377115
(lp306
g4
asI78621404
(lp307
g4
asI175266525
(lp308
g4
asI111168224
(lp309
g4
asI58669793
(lp310
g4
asI54614755
(lp311
g4
asI48190181
(lp312
g4
asI36512487
(lp313
g4
asI299901672
(lp314
g4
asI62905065
(lp315
g4
asI404493034
(lp316
g4
asI35840749
(lp317
g4
asI318575400
(lp318
g4
asI13044
(lp319
g4
asI104402351
(lp320
g4
asI22147830
(lp321
g4
asI30620408
(lp322
g4
asI80589565
(lp323
g4
asI371057407
(lp324
g4
asI18154243
(lp325
g4
asI29684485
(lp326
g4
asI88197896
(lp327
g4
asI499446572
(lp328
g4
asI7667842
(lp329
g4
asI106713871
(lp330
g4
asI331402003
(lp331
g4
asI97762075
(lp332
g4
asI21990172
(lp333
g4
asI953924382
(lp334
g4
asI3756831
(lp335
g4
asI259517216
(lp336
g4
asI265081634
(lp337
g4
asI89303843
(lp338
g4
asI277981988
(lp339
g4
asI96756518
(lp340
g4
asI82494248
(lp341
g4
ag89
ag90
asI137796394
(lp342
g4
asI218266977
(lp343
g4
asI63673132
(lp344
g4
asI264477487
(lp345
g4
asI218217108
(lp346
g4
asI16919350
(lp347
g4
asI109169463
(lp348
g4
asI820025
(lp349
g4
asI20650810
(lp350
g4
asI443284285
(lp351
g4
asI77128512
(lp352
g89
asI241756993
(lp353
g4
asI15203138
(lp354
g4
asI63634244
(lp355
g4
asI73921349
(lp356
g4
asI196899905
(lp357
g4
asI8969032
(lp358
g4
asI22975287
(lp359
g4
asI279638860
(lp360
g4
asI107989838
(lp361
g4
asI250477393
(lp362
g4
asI19893075
(lp363
g4
asI11633492
(lp364
g4
asI124025657
(lp365
g4
asI105038681
(lp366
g4
asI82875227
(lp367
g4
asI265001821
(lp368
g4
asI98638686
(lp369
g88
asI258571104
(lp370
g4
asI14465889
(lp371
g4
asI390472547
(lp372
g4
asI767826788
(lp373
g4
asI131888614
(lp374
g4
asI1048892262
(lp375
g4
ag87
ag88
ag89
ag90
asI14609257
(lp376
g4
asI41628522
(lp377
g4
asI339802989
(lp378
g4
asI59896688
(lp379
g4
asI103873393
(lp380
g4
asI140620659
(lp381
g4
asI22393716
(lp382
g4
asI423525238
(lp383
g4
asI369144695
(lp384
g4
asI181697401
(lp385
g4
asI9689982
(lp386
g4
asI106853250
(lp387
g4
asI19985285
(lp388
g4
asI20425606
(lp389
g4
asI15842184
(lp390
g4
asI94892937
(lp391
g4
asI83301258
(lp392
g4
asI142945167
(lp393
g4
asI278705041
(lp394
g4
asI204366739
(lp395
g4
asI35568533
(lp396
g4
asI130507588
(lp397
g4
asI69587866
(lp398
g87
asI119196571
(lp399
g4
asI344253343
(lp400
g4
asI45589409
(lp401
g4
asI384099234
(lp402
g4
asI806043
(lp403
g89
asI117760933
(lp404
g4
asI8145832
(lp405
g4
asI14414761
(lp406
g4
asI501300140
(lp407
g4
asI14959533
(lp408
g87
asI15279023
(lp409
g4
asI629685168
(lp410
g4
asI63296328
(lp411
g4
asI714748850
(lp412
g4
asI229004211
(lp413
g4
asI16862134
(lp414
g4
asI23634659
(lp415
g4
asI807787448
(lp416
g4
asI574022585
(lp417
g4
asI55972794
(lp418
g4
asI78609340
(lp419
g4
asI35335105
(lp420
g4
asI72433483
(lp421
g4
asI79178231
(lp422
g4
asI154979278
(lp423
g4
asI18447312
(lp424
g4
asI310272075
(lp425
g4
asI18887637
(lp426
g4
asI133893078
(lp427
g4
asI184490971
(lp428
g4
asI702172129
(lp429
g4
asI49658852
(lp430
g4
asI18533350
(lp431
g4
asI53961704
(lp432
g4
asI96682985
(lp433
g4
asI278981610
(lp434
g4
asI62401515
(lp435
g4
asI97357819
(lp436
g4
asI97717232
(lp437
g4
asI164193266
(lp438
g4
asI19471349
(lp439
g4
asI178736122
(lp440
g4
asI24112123
(lp441
g4
asI14474239
(lp442
g4
asI195562496
(lp443
g4
asI402824193
(lp444
g4
asI493562882
(lp445
g4
asI80464900
(lp446
g4
asI794201094
(lp447
g4
asI27134986
(lp448
g4
asI19866635
(lp449
g4
asI138228749
(lp450
g4
asI25146382
(lp451
g4
asI26285071
(lp452
g4
asI48608038
(lp453
g4
asI712977428
(lp454
g4
asI66179247
(lp455
g4
asI5510172
(lp456
g4
asI214760479
(lp457
g4
asI23346215
(lp458
g4
asI18934825
(lp459
g4
asI404577322
(lp460
g4
asI296534535
(lp461
g4
asI14403762
(lp462
g89
asI716084274
(lp463
g4
asI436655156
(lp464
g4
asI21273654
(lp465
g4
asI4412471
(lp466
g4
asI461804603
(lp467
g4
asI57764704
(lp468
g4
asI121637956
(lp469
g4
asI15897670
(lp470
g4
asI139162695
(lp471
g4
asI170101551
(lp472
g4
asI128755499
(lp473
g4
asI20386890
(lp474
g4
asI43570256
(lp475
g4
asI68785235
(lp476
g4
asI192674900
(lp477
g4
asI51352661
(lp478
g4
asI71925149
(lp479
g4
asI35382367
(lp480
g4
asI35595361
(lp481
g4
asI68420706
(lp482
g4
asI92771428
(lp483
g4
asI132684907
(lp484
g4
asI129703442
(lp485
g4
asI337828975
(lp486
g4
asI86820158
(lp487
g4
asI195577705
(lp488
g4
asI127333506
(lp489
g4
asI410262661
(lp490
g4
asI145826952
(lp491
g4
asI308917387
(lp492
g4
asI227116174
(lp493
g4
asI14513297
(lp494
g4
asI64244883
(lp495
g4
asI6468662
(lp496
g4
asI3388571
(lp497
g4
asI618394780
(lp498
g4
asI280507552
(lp499
g87
asI286802800
(lp500
g4
asI39503010
(lp501
g4
asI251479207
(lp502
g4
asI97449128
(lp503
g4
asI9190572
(lp504
g4
asI62444717
(lp505
g4
asI16486941
(lp506
g4
asI341122285
(lp507
g4
asI115969204
(lp508
g4
asI92732457
(lp509
g4
asI143774902
(lp510
g4
asI11670712
(lp511
g4
asI309903879
(lp512
g4
asI142341307
(lp513
g4
asI346361023
(lp514
g4
asI841303232
(lp515
g4
asI186098550
(lp516
g4
asI138173640
(lp517
g4
asI156081353
(lp518
g4
asI303987914
(lp519
g4
asI362488695
(lp520
g4
asI35956258
(lp521
g4
asI24253645
(lp522
g4
asI88474833
(lp523
g4
asI39734482
(lp524
g4
asI88956117
(lp525
g4
asI593290456
(lp526
g4
asI45067471
(lp527
g4
asI364326108
(lp528
g4
asI30366941
(lp529
g4
asI56919266
(lp530
g4
asI18312419
(lp531
g4
asI212030694
(lp532
g4
asI12621032
(lp533
g4
asI8187772
(lp534
g4
asI75817283
(lp535
g4
asI118742253
(lp536
g4
asI46576878
(lp537
g4
asI109958383
(lp538
g4
asI16960753
(lp539
g4
asI308360786
(lp540
g4
asI26873075
(lp541
g4
asI8844532
(lp542
g4
asI65008510
(lp543
g4
asI264440361
(lp544
g4
asI58055928
(lp545
g4
asI22148005
(lp546
g4
asI777466
(lp547
g4
asI63452413
(lp548
g4
asI58566869
(lp549
g4
asI77884672
(lp550
g4
asI23629696
(lp551
g4
asI57521411
(lp552
g4
asI7488772
(lp553
g4
asI84204805
(lp554
g4
asI52231430
(lp555
g4
asI399015179
(lp556
g4
asI241136514
(lp557
g4
asI124873998
(lp558
g4
asI9123032
(lp559
g4
asI200203539
(lp560
g4
asI92317714
(lp561
g4
asI371916054
(lp562
g4
asI2174231
(lp563
g4
asI80141096
(lp564
g4
asI82894106
(lp565
g4
asI14300443
(lp566
g4
asI75676959
(lp567
g4
asI56847652
(lp568
g4
asI188830598
(lp569
g4
asI60058919
(lp570
g4
asI151573724
(lp571
g4
asI63579436
(lp572
g89
asI13604142
(lp573
g4
asI47701213
(lp574
g4
asI393643912
(lp575
g4
asI613129523
(lp576
g4
asI133535031
(lp577
g4
asI28957750
(lp578
g4
asI473580093
(lp579
g4
asI14363966
(lp580
g4
asI113065279
(lp581
g4
asI283529440
(lp582
g4
asI220258630
(lp583
g4
asI4109641
(lp584
g4
asI72682826
(lp585
g4
asI359662923
(lp586
g4
asI199550287
(lp587
g4
asI109378896
(lp588
g4
asI3820771
(lp589
g4
asI52702548
(lp590
g4
asI1541461
(lp591
g4
asI796847448
(lp592
g4
asI19256207
(lp593
g4
asI213294428
(lp594
g4
asI81376605
(lp595
g4
asI162887009
(lp596
g4
asI29115622
(lp597
g4
asI175780413
(lp598
g4
asI60163440
(lp599
g4
asI92149105
(lp600
g4
asI16201074
(lp601
g4
asI107275636
(lp602
g4
asI369835385
(lp603
g4
asI136135454
(lp604
g4
asI371774849
(lp605
g4
asI796284290
(lp606
g4
asI173983107
(lp607
g4
asI178857351
(lp608
g4
asI278482314
(lp609
g4
asI255665547
(lp610
g4
asI138624399
(lp611
g4
asI11154832
(lp612
g4
asI14742766
(lp613
g4
asI18619799
(lp614
g4
asI870647197
(lp615
g4
asI255163973
(lp616
g4
asI94709152
(lp617
g4
asI368077040
(lp618
g4
asI16063910
(lp619
g4
asI45840741
(lp620
g4
asI16362921
(lp621
g4
asI46308779
(lp622
g4
asI147301805
(lp623
g4
asI225695151
(lp624
g4
asI535004592
(lp625
g4
asI360848817
(lp626
g4
asI58443187
(lp627
g4
asI77642614
(lp628
g4
asI185351607
(lp629
g4
asI65153062
(lp630
g4
asI50156988
(lp631
g4
asI164273597
(lp632
g4
asI64677310
(lp633
g4
asI19226047
(lp634
g4
asI301034944
(lp635
g4
asI51838401
(lp636
g4
asI19623362
(lp637
g4
asI116911556
(lp638
g4
asI130650358
(lp639
g89
asI46323142
(lp640
g4
asI14087623
(lp641
g4
asI319964618
(lp642
g4
asI28733664
(lp643
g4
asI272739790
(lp644
g4
asI54709713
(lp645
g4
asI178210266
(lp646
g4
asI102913501
(lp647
g87
asI95550943
(lp648
g4
asI47353314
(lp649
g4
asI414318054
(lp650
g87
asI140666343
(lp651
g4
asI97958140
(lp652
g4
asI58465773
(lp653
g4
asI603345948
(lp654
g4
asI394787069
(lp655
g4
ag88
ag89
ag90
asI288514984
(lp656
g4
asI597765619
(lp657
g4
asI96877723
(lp658
g4
asI28206330
(lp659
g4
asI1031489016
(lp660
g4
asI114756180
(lp661
g4
asI54736379
(lp662
g4
asI110794236
(lp663
g4
asI189978109
(lp664
g4
asI819797
(lp665
g4
asI45575681
(lp666
g4
asI12033622
(lp667
g4
asI28347911
(lp668
g4
asI89943561
(lp669
g4
asI79757911
(lp670
g4
asI169119245
(lp671
g4
asI822375954
(lp672
g4
asI129831164
(lp673
g4
asI178908696
(lp674
g4
asI31284763
(lp675
g4
asI273507248
(lp676
g4
asI184712738
(lp677
g4
asI265818715
(lp678
g4
asI14362148
(lp679
g4
asI53290533
(lp680
g4
asI14112296
(lp681
g4
asI409343530
(lp682
g4
asI18044459
(lp683
g4
asI200081665
(lp684
g4
asI24475055
(lp685
g4
asI24454711
(lp686
g87
asI196212283
(lp687
g4
asI121319462
(lp688
g4
asI81050521
(lp689
g4
asI83977792
(lp690
g4
asI17907265
(lp691
g4
asI18990658
(lp692
g4
asI251771147
(lp693
g4
asI36208197
(lp694
g4
asI179353158
(lp695
g4
asI56947249
(lp696
g4
asI134262347
(lp697
g4
asI25448012
(lp698
g4
asI239108320
(lp699
g4
asI138976848
(lp700
g4
asI46321233
(lp701
g4
asI138544722
(lp702
g4
asI247983699
(lp703
g4
asI279225940
(lp704
g4
asI109729366
(lp705
g4
asI119608921
(lp706
g4
asI248536666
(lp707
g4
asI409620059
(lp708
g4
ag87
ag88
ag89
ag90
asI10415712
(lp709
g4
asI588428840
(lp710
g4
asI67475048
(lp711
g4
asI48517052
(lp712
g4
asI187385073
(lp713
g4
asI420787154
(lp714
g4
asI463394414
(lp715
g4
asI858934897
(lp716
g4
asI14114420
(lp717
g4
asI219891317
(lp718
g4
asI81010295
(lp719
g4
asI53458268
(lp720
g4
asI233631354
(lp721
g4
asI126401130
(lp722
g4
asI1011334784
(lp723
g4
asI61744769
(lp724
g4
asI150851204
(lp725
g4
asI14083717
(lp726
g4
asI161042057
(lp727
g4
asI205596302
(lp728
g4
asI37807761
(lp729
g4
asI39915165
(lp730
g4
asI54062751
(lp731
g4
asI123037344
(lp732
g4
asI143896177
(lp733
g4
asI22759081
(lp734
g4
asI64362154
(lp735
g4
asI339213996
(lp736
g87
asI102139569
(lp737
g4
asI14401607
(lp738
g4
asI87576351
(lp739
g4
asI77924022
(lp740
g4
asI83603127
(lp741
g4
asI236134072
(lp742
g89
asI47517300
(lp743
g4
asI212768442
(lp744
g4
asI310216379
(lp745
g4
asI78181167
(lp746
g4
asI14200297
(lp747
g4
asI1105211076
(lp748
g89
asI111961799
(lp749
g4
asI82648776
(lp750
g89
asI328134350
(lp751
g4
asI602151203
(lp752
g4
asI622736360
(lp753
g4
asI135878358
(lp754
g4
asI14579415
(lp755
g4
asI248846040
(lp756
g4
asI125112029
(lp757
g4
asI13893342
(lp758
g4
asI21632293
(lp759
g4
asI86730464
(lp760
g4
asI196962019
(lp761
g4
asI17184487
(lp762
g4
asI23313894
(lp763
g4
ag87
ag88
ag89
ag90
asI16801515
(lp764
g4
asI368680685
(lp765
g4
asI256653038
(lp766
g4
ag87
ag88
ag89
ag90
asI243476207
(lp767
g4
asI242577136
(lp768
g4
asI100167416
(lp769
g4
asI267859706
(lp770
g4
asI141758206
(lp771
g4
asI602267393
(lp772
g4
asI6471552
(lp773
g4
asI32851720
(lp774
g4
ag87
ag88
ag89
ag90
asI227798794
(lp775
g4
asI299396879
(lp776
g4
asI172599062
(lp777
g4
asI189265687
(lp778
g4
asI141434318
(lp779
g4
asI171185207
(lp780
g4
asI287319343
(lp781
g4
asI464887553
(lp782
g87
asI35743519
(lp783
g4
asI302729462
(lp784
g4
asI74350370
(lp785
g4
asI172420901
(lp786
g4
asI14681894
(lp787
g4
asI156843817
(lp788
g4
asI755499
(lp789
g4
asI255098668
(lp790
g4
asI15953712
(lp791
g4
asI556865334
(lp792
g4
asI354131767
(lp793
g4
asI50462520
(lp794
g4
asI49069882
(lp795
g4
asI6281022
(lp796
g4
asI39526207
(lp797
g4
asI18150533
(lp798
g4
asI374013762
(lp799
g4
asI272992067
(lp800
g4
asI338597701
(lp801
g4
asI301173239
(lp802
g4
asI14583626
(lp803
g4
asI105172811
(lp804
g4
asI115007308
(lp805
g4
ag87
ag88
ag89
ag90
asI19156818
(lp806
g4
asI299513684
(lp807
g4
asI180793905
(lp808
g4
asI97279830
(lp809
g4
asI117193700
(lp810
g4
asI64206683
(lp811
g4
asI25989434
(lp812
g4
asI560704597
(lp813
g87
asI96845665
(lp814
g4
asI41858914
(lp815
g4
asI23515110
(lp816
g4
asI273223527
(lp817
g4
asI241917800
(lp818
g4
asI108986217
(lp819
g4
asI65423211
(lp820
g4
asI180029292
(lp821
g4
asI100634376
(lp822
g4
asI14518129
(lp823
g4
asI18020212
(lp824
g4
asI19876158
(lp825
g4
asI133400438
(lp826
g4
asI304238225
(lp827
g4
asI212643705
(lp828
g4
asI22897983
(lp829
g4
asI31141756
(lp830
g4
asI160724861
(lp831
g4
asI566634368
(lp832
g4
asI179793797
(lp833
g4
asI11986822
(lp834
g4
asI78404929
(lp835
g4
asI626855816
(lp836
g4
asI47832976
(lp837
g4
asI27730243
(lp838
g4
asI78958491
(lp839
g4
asI79603732
(lp840
g4
asI14449423
(lp841
g4
asI90271649
(lp842
g4
asI200273826
(lp843
g4
asI98046278
(lp844
g4
asI14917546
(lp845
g4
asI136795247
(lp846
g4
asI372672430
(lp847
g4
asI30048176
(lp848
g4
asI25719112
(lp849
g4
asI8847282
(lp850
g4
asI525152180
(lp851
g4
asI117265054
(lp852
g4
asI62515126
(lp853
g4
asI117724817
(lp854
g4
asI77088697
(lp855
g4
asI87934908
(lp856
g4
asI109952957
(lp857
g4
asI43270079
(lp858
g88
asI17721280
(lp859
g4
asI1103587242
(lp860
g89
asI180549973
(lp861
g4
asI205350858
(lp862
g4
asI106699562
(lp863
g4
asI717203408
(lp864
g4
asI409518033
(lp865
g4
asI108742610
(lp866
g4
asI297443287
(lp867
g4
asI386621401
(lp868
g4
asI116019165
(lp869
g4
asI111145001
(lp870
g4
asI53224710
(lp871
g87
asI16353720
(lp872
g4
asI102148069
(lp873
g4
asI60532710
(lp874
g4
asI600627175
(lp875
g4
asI393424872
(lp876
g4
asI136099833
(lp877
g4
asI813039
(lp878
g4
asI170686450
(lp879
g4
asI375801845
(lp880
g4
asI83013622
(lp881
g4
asI11898872
(lp882
g4
asI543764473
(lp883
g4
asI227796986
(lp884
g4
asI193030139
(lp885
g4
asI51331070
(lp886
g4
asI82517333
(lp887
g4
as.