(dp1
I174192384
(lp2
cdatetime
datetime
p3
(S"\x07\xdd\x01\t\n\x0c'\x0b7\xd9"
tRp4
asI16270209
(lp5
g4
asI22695686
(lp6
g4
asI14334343
(lp7
g4
asI102437897
(lp8
g4
asI39478155
(lp9
g4
asI1106755470
(lp10
g3
(S'\x07\xdd\x01\x18\x0c\x04\x02\x0eh\xd9'
tRp11
asI318332175
(lp12
g4
asI101056915
(lp13
g4
asI133307925
(lp14
g11
asI9720292
(lp15
g4
asI17141146
(lp16
g4
asI28531867
(lp17
g4
asI19437471
(lp18
g4
asI78328224
(lp19
g4
asI118242978
(lp20
g4
asI22250587
(lp21
g4
asI21434533
(lp22
g4
asI442613670
(lp23
g4
asI60893480
(lp24
g4
asI14880425
(lp25
g4
asI608105386
(lp26
g4
asI23076651
(lp27
g4
asI14511276
(lp28
g4
asI268710642
(lp29
g4
asI30781999
(lp30
g4
asI294061106
(lp31
g4
asI4403891
(lp32
g4
asI899605944
(lp33
g4
asI21587130
(lp34
g4
asI448201660
(lp35
g4
asI16243518
(lp36
g4
asI103872448
(lp37
g4
asI14235842
(lp38
g4
asI124594470
(lp39
g4
asI29418693
(lp40
g4
asI21745735
(lp41
g4
asI17835336
(lp42
g4
asI501596874
(lp43
g4
asI897433675
(lp44
g4
asI188786892
(lp45
g4
asI360771554
(lp46
g4
asI18045774
(lp47
g4
asI289724736
(lp48
g4
asI21637329
(lp49
g4
asI14638546
(lp50
g4
asI839291598
(lp51
g4
asI24762326
(lp52
g3
(S'\x07\xdd\x01\x18\x0f\x0c/\x0e\xf2)'
tRp53
asI156605271
(lp54
g4
asI45557973
(lp55
g4
asI94812377
(lp56
g4
asI13763162
(lp57
g4
asI474500315
(lp58
g4
asI326450140
(lp59
g4
asI5528762
(lp60
g4
asI253567717
(lp61
g4
asI78530768
(lp62
g4
asI68643426
(lp63
g4
asI25421795
(lp64
g4
asI14889060
(lp65
g4
asI19711333
(lp66
g4
asI562886087
(lp67
g4
asI930911977
(lp68
g4
asI114059717
(lp69
g4
asI15947854
(lp70
g4
asI44554861
(lp71
g4
asI20179696
(lp72
g4
asI367928690
(lp73
g3
(S'\x07\xdd\x01\x11\r2\x10\x06\xa8\xa7'
tRp74
asI90948850
(lp75
g4
asI76897398
(lp76
g4
asI22466167
(lp77
g4
asI556357754
(lp78
g4
asI372378622
(lp79
g4
asI108077269
(lp80
g4
ag74
ag11
ag3
(S'\x07\xdd\x01\x18\r\x0b\r\x0b\x92m'
tRp81
ag53
as.