(dp1
I513644033
(lp2
cdatetime
datetime
p3
(S'\x07\xdd\x01\t\x0f\x18\x14\x04\x7f\xb2'
tRp4
asI66568198
(lp5
g4
asI2142731
(lp6
g4
asI59084819
(lp7
g4
asI273824942
(lp8
g4
asI58129753
(lp9
g4
asI41531417
(lp10
g4
asI60261918
(lp11
g4
ag3
(S'\x07\xdd\x01\x11\x105\x01\x0b\x9c\xe2'
tRp12
ag3
(S'\x07\xdd\x01\x18\x0e\x00\x01\x08p\x9f'
tRp13
ag3
(S'\x07\xdd\x01\x18\x0f\x0c/\x0e\xf2)'
tRp14
asI106520613
(lp15
g4
asI146800167
(lp16
g4
asI212921900
(lp17
g4
asI380492347
(lp18
g4
asI11338302
(lp19
g4
asI897433675
(lp20
g4
ag13
ag14
asI57015382
(lp21
g4
asI66163803
(lp22
g4
asI28162659
(lp23
g4
asI145190502
(lp24
g4
asI15473256
(lp25
g4
asI169484396
(lp26
g4
asI89085039
(lp27
g4
asI53315688
(lp28
g4
asI291757683
(lp29
g4
asI85368439
(lp30
g4
asI56985724
(lp31
g4
asI98565249
(lp32
g4
asI178580108
(lp33
g4
asI29538964
(lp34
g4
asI430897813
(lp35
g4
asI479847961
(lp36
g4
asI178089117
(lp37
g4
asI104548512
(lp38
g4
asI125383842
(lp39
g4
asI192223914
(lp40
g4
asI58139819
(lp41
g4
asI17185453
(lp42
g4
asI106038958
(lp43
g4
asI205684404
(lp44
g4
asI57043641
(lp45
g4
asI30604487
(lp46
g4
asI54928076
(lp47
g4
asI2200781
(lp48
g4
asI457541326
(lp49
g4
asI58490579
(lp50
g4
asI197863637
(lp51
g4
asI16270042
(lp52
g4
asI48054499
(lp53
g4
asI157596903
(lp54
g4
asI55571180
(lp55
g4
asI98576112
(lp56
g4
asI197447412
(lp57
g4
asI114620149
(lp58
g4
asI107427062
(lp59
g4
asI130570965
(lp60
g4
asI400417545
(lp61
g4
asI356782858
(lp62
g4
asI490961676
(lp63
g4
asI169662221
(lp64
g4
asI135088092
(lp65
g4
asI18364714
(lp66
g4
asI351018295
(lp67
g4
asI261401405
(lp68
g4
asI10564
(lp69
g4
asI215244619
(lp70
g4
asI16774476
(lp71
g4
asI57251161
(lp72
g4
asI61209949
(lp73
g4
asI701671267
(lp74
g4
asI53429092
(lp75
g4
asI71806313
(lp76
g4
asI57925482
(lp77
g4
asI28160365
(lp78
g4
asI111929661
(lp79
g12
asI98316144
(lp80
g4
asI212300145
(lp81
g4
asI67653490
(lp82
g4
asI21770611
(lp83
g4
ag12
ag13
ag14
asI388737912
(lp84
g4
asI19384711
(lp85
g4
asI576844683
(lp86
g4
asI58806162
(lp87
g4
asI183543191
(lp88
g4
asI314011033
(lp89
g13
asI104407962
(lp90
g4
asI427130781
(lp91
g4
asI18959775
(lp92
g4
asI12064162
(lp93
g4
asI838841779
(lp94
g4
asI216018356
(lp95
g4
asI5502392
(lp96
g4
asI40717760
(lp97
g4
asI76338114
(lp98
g4
asI144231880
(lp99
g4
asI348521930
(lp100
g4
asI30985586
(lp101
g4
asI184622034
(lp102
g4
asI42488792
(lp103
g4
asI106655194
(lp104
g4
asI236122588
(lp105
g4
asI284491745
(lp106
g4
asI141080548
(lp107
g4
asI120861671
(lp108
g4
asI134680040
(lp109
g4
asI122442733
(lp110
g4
asI16796654
(lp111
g4
asI106961404
(lp112
g4
as.