(dp1
I743927299
(lp2
cdatetime
datetime
p3
(S'\x07\xdd\x01\x16\x11\x18\x02\x0c\x87\x98'
tRp4
asI634734084
(lp5
g3
(S'\x07\xdd\x01\x11\x145\x01\x04)\xb0'
tRp6
asI801778694
(lp7
g3
(S'\x07\xdd\x01\x08\x0f\x1a\x14\x07\x93\t'
tRp8
asI1009410055
(lp9
g4
asI949342729
(lp10
g8
asI610855434
(lp11
g8
asI775308128
(lp12
g8
asI432433165
(lp13
g8
asI993871374
(lp14
g8
asI1055158190
(lp15
g8
asI385006096
(lp16
g8
ag6
ag3
(S'\x07\xdd\x01\x12\x005\x01\x0eV\x16'
tRp17
ag4
ag3
(S'\x07\xdd\x01\x18\x0e\x00\x01\x08p\x9f'
tRp18
ag3
(S'\x07\xdd\x01\x19\x10\x05\x01\x08\xacm'
tRp19
asI507169721
(lp20
g8
asI914006034
(lp21
g8
asI775211540
(lp22
g8
ag4
ag18
ag19
asI541807637
(lp23
g8
asI781131798
(lp24
g6
asI731598361
(lp25
g8
asI543937563
(lp26
g8
asI557360720
(lp27
g8
asI538032730
(lp28
g8
asI427955231
(lp29
g8
asI537006625
(lp30
g8
asI566201890
(lp31
g8
asI1006192675
(lp32
g8
asI1033366052
(lp33
g8
asI622204453
(lp34
g8
asI1076561958
(lp35
g6
asI744394332
(lp36
g8
asI537722410
(lp37
g8
asI536671275
(lp38
g8
asI972543020
(lp39
g8
ag6
ag17
ag4
ag18
ag19
asI618406960
(lp40
g8
asI1047826993
(lp41
g8
asI1003459166
(lp42
g8
asI729610249
(lp43
g8
asI840784442
(lp44
g8
asI553883199
(lp45
g8
asI574345280
(lp46
g8
asI1017110880
(lp47
g4
asI750116930
(lp48
g8
asI713369155
(lp49
g18
asI992184390
(lp50
g8
asI379441735
(lp51
g8
asI634164238
(lp52
g8
asI897433675
(lp53
g8
asI1075588686
(lp54
g18
asI388204111
(lp55
g6
asI1006405712
(lp56
g8
asI497200886
(lp57
g8
asI381785171
(lp58
g8
asI969138260
(lp59
g8
asI635847694
(lp60
g8
asI812866134
(lp61
g8
asI471434839
(lp62
g8
asI1000391257
(lp63
g8
asI370764378
(lp64
g8
asI626959452
(lp65
g8
ag6
ag17
ag4
ag18
ag19
asI552206429
(lp66
g8
asI482563166
(lp67
g8
asI750293599
(lp68
g6
asI576781920
(lp69
g8
asI900633186
(lp70
g8
asI962012347
(lp71
g4
asI1000220773
(lp72
g8
ag18
ag19
asI823677542
(lp73
g8
asI513593963
(lp74
g8
asI1032726636
(lp75
g8
asI539483666
(lp76
g8
asI498590319
(lp77
g8
asI360884848
(lp78
g8
asI624780913
(lp79
g8
asI788148926
(lp80
g8
asI877083254
(lp81
g6
asI506764919
(lp82
g8
asI595715193
(lp83
g8
asI492862586
(lp84
g8
asI1021839486
(lp85
g8
asI519359107
(lp86
g8
asI605304454
(lp87
g8
asI446947975
(lp88
g8
asI792608395
(lp89
g17
asI737901708
(lp90
g8
asI890700942
(lp91
g6
asI990402703
(lp92
g8
asI570897040
(lp93
g8
asI938175121
(lp94
g8
asI803913362
(lp95
g8
asI543021203
(lp96
g8
asI1076329326
(lp97
g6
asI388224150
(lp98
g8
asI737461400
(lp99
g8
asI1011311300
(lp100
g8
asI592271514
(lp101
g8
asI634761141
(lp102
g19
asI515906205
(lp103
g8
asI581815967
(lp104
g6
asI458774688
(lp105
g8
asI782850217
(lp106
g8
asI526936234
(lp107
g6
asI904439468
(lp108
g8
asI972721837
(lp109
g8
asI949669038
(lp110
g8
asI622364847
(lp111
g8
asI1005303984
(lp112
g8
asI1080594613
(lp113
g4
asI523305143
(lp114
g8
asI569838265
(lp115
g8
asI485855419
(lp116
g18
asI947204286
(lp117
g8
asI849624864
(lp118
g8
asI569676994
(lp119
g8
asI392359619
(lp120
g6
asI815176388
(lp121
g8
asI373845805
(lp122
g8
asI815816904
(lp123
g8
asI985356492
(lp124
g8
asI1012230349
(lp125
g8
asI865261261
(lp126
g4
asI1003581649
(lp127
g4
asI973871826
(lp128
g8
asI1013075156
(lp129
g8
asI258862007
(lp130
g8
asI551850198
(lp131
g8
asI387117271
(lp132
g8
asI805588381
(lp133
g8
asI568855588
(lp134
g8
asI980892380
(lp135
g8
asI944885370
(lp136
g17
asI501943006
(lp137
g8
asI992863968
(lp138
g8
asI1017010404
(lp139
g8
asI625244901
(lp140
g8
ag6
ag17
ag4
ag18
ag19
asI551457510
(lp141
g8
asI943664192
(lp142
g4
asI362793746
(lp143
g8
asI1066672874
(lp144
g6
asI1023923503
(lp145
g8
asI493602543
(lp146
g8
asI1068671216
(lp147
g6
asI934304498
(lp148
g4
asI968533992
(lp149
g8
asI722472692
(lp150
g6
asI1006599925
(lp151
g8
asI997744886
(lp152
g8
ag6
ag17
ag4
ag18
ag19
asI743045880
(lp153
g8
asI634221305
(lp154
g8
asI443916026
(lp155
g8
asI949070588
(lp156
g8
asI1016099370
(lp157
g8
asI745374464
(lp158
g8
asI989808386
(lp159
g8
asI956364547
(lp160
g6
asI872668932
(lp161
g8
asI574613206
(lp162
g6
asI604047622
(lp163
g8
asI610930439
(lp164
g8
asI786879241
(lp165
g8
asI825765132
(lp166
g8
asI490287886
(lp167
g8
asI541000463
(lp168
g6
asI741801744
(lp169
g8
asI810815761
(lp170
g8
asI1000752402
(lp171
g8
ag19
asI453306499
(lp172
g8
asI178710809
(lp173
g8
asI534608667
(lp174
g4
asI1002722076
(lp175
g8
asI368171806
(lp176
g8
asI968628512
(lp177
g8
asI547899681
(lp178
g8
asI495092514
(lp179
g4
asI335764090
(lp180
g8
asI1025025073
(lp181
g8
asI911336232
(lp182
g6
asI760255262
(lp183
g8
asI579117355
(lp184
g8
asI588619053
(lp185
g8
asI573072282
(lp186
g8
asI795773743
(lp187
g8
asI1031262000
(lp188
g8
asI1009983282
(lp189
g8
asI341928756
(lp190
g6
asI391172830
(lp191
g8
asI908207418
(lp192
g8
asI1089750331
(lp193
g6
asI780500796
(lp194
g8
asI725861173
(lp195
g8
asI856120128
(lp196
g8
asI561486659
(lp197
g8
asI1042448708
(lp198
g6
asI624302406
(lp199
g8
asI513581383
(lp200
g8
asI700423496
(lp201
g8
asI1027095883
(lp202
g8
asI535732525
(lp203
g8
asI881009492
(lp204
g8
asI629944151
(lp205
g8
asI1006172815
(lp206
g6
ag4
ag18
ag19
asI606660956
(lp207
g6
asI1088328030
(lp208
g18
asI901002079
(lp209
g8
asI445481824
(lp210
g8
asI402998453
(lp211
g8
asI484711268
(lp212
g8
asI840379537
(lp213
g8
asI114367463
(lp214
g8
asI1005100908
(lp215
g8
asI754553197
(lp216
g6
asI321301358
(lp217
g8
asI1038234992
(lp218
g8
asI748032488
(lp219
g8
asI297740818
(lp220
g8
asI1047503329
(lp221
g8
asI969208692
(lp222
g8
asI289022382
(lp223
g8
asI978948656
(lp224
g4
asI440768889
(lp225
g6
asI968825210
(lp226
g8
asI406492821
(lp227
g17
asI540689792
(lp228
g8
asI215594881
(lp229
g8
asI607801730
(lp230
g8
asI588796292
(lp231
g19
asI451361157
(lp232
g8
asI588631942
(lp233
g8
asI589236616
(lp234
g4
asI1057496971
(lp235
g8
ag6
ag17
ag4
ag18
ag19
asI615671695
(lp236
g8
asI452049048
(lp237
g8
ag6
ag17
ag4
ag18
ag19
asI575640260
(lp238
g8
asI928648086
(lp239
g8
asI1098543511
(lp240
g6
asI971637146
(lp241
g8
asI1039174962
(lp242
g8
asI889288604
(lp243
g8
asI1072885146
(lp244
g6
asI409880478
(lp245
g8
asI1074079717
(lp246
g4
asI412408092
(lp247
g4
asI835722152
(lp248
g8
asI542023593
(lp249
g6
asI409008434
(lp250
g8
asI631104687
(lp251
g6
asI528457646
(lp252
g8
asI750037166
(lp253
g6
asI995964338
(lp254
g8
asI769203636
(lp255
g8
asI481851829
(lp256
g8
asI1026908598
(lp257
g8
asI1008389047
(lp258
g8
asI984058266
(lp259
g8
asI773134634
(lp260
g8
asI970893690
(lp261
g4
asI1011036746
(lp262
g6
asI1015694581
(lp263
g8
asI774430657
(lp264
g8
asI485160267
(lp265
g8
asI452801270
(lp266
g8
asI614671303
(lp267
g8
asI586483658
(lp268
g8
asI632094343
(lp269
g8
asI886775245
(lp270
g8
asI387318222
(lp271
g8
asI735634896
(lp272
g6
asI993243601
(lp273
g8
asI937094612
(lp274
g8
asI414571477
(lp275
g8
asI884717874
(lp276
g4
asI622064087
(lp277
g8
asI500154520
(lp278
g8
ag6
ag17
ag4
ag18
ag19
asI911597647
(lp279
g8
asI535740380
(lp280
g8
asI808731386
(lp281
g4
asI437407711
(lp282
g8
asI704376912
(lp283
g8
asI1004545507
(lp284
g8
asI442941924
(lp285
g8
asI397880293
(lp286
g8
asI414205926
(lp287
g8
asI943505383
(lp288
g8
asI507351016
(lp289
g8
asI626201338
(lp290
g6
asI784152044
(lp291
g8
asI933466482
(lp292
g8
asI566437254
(lp293
g8
asI556238320
(lp294
g8
asI996013992
(lp295
g6
asI908065266
(lp296
g8
asI555103425
(lp297
g4
asI536456181
(lp298
g8
asI879608660
(lp299
g8
asI983619151
(lp300
g8
asI839846570
(lp301
g4
asI439539285
(lp302
g8
as.