(dp1
I44330657
(lp2
cdatetime
datetime
p3
(S'\x07\xdd\x01\t\x0f\x18\x14\x04\x7f\xb2'
tRp4
asI125512325
(lp5
g4
asI118897249
(lp6
g4
asI897433675
(lp7
g4
asI115528748
(lp8
g4
asI532572782
(lp9
g4
asI1060786904
(lp10
g4
asI41104376
(lp11
g4
asI589220153
(lp12
g4
asI305480986
(lp13
g4
asI575152349
(lp14
g4
asI214650597
(lp15
g4
as.