(dp1
I16307712
(lp2
cdatetime
datetime
p3
(S'\x07\xdd\x01\t\r\x01\x0c\x0f<\xda'
tRp4
asI394637956
(lp5
g4
asI334593413
(lp6
g4
asI65476872
(lp7
g4
asI236127765
(lp8
g4
asI620882585
(lp9
g4
asI110451226
(lp10
g4
asI38967578
(lp11
g4
asI21511712
(lp12
g4
asI139948193
(lp13
g4
asI365998498
(lp14
g4
asI33471016
(lp15
g4
asI23849513
(lp16
g4
asI21068460
(lp17
g4
asI12656432
(lp18
g4
asI263821746
(lp19
g4
asI257023541
(lp20
g4
asI204256438
(lp21
g4
asI96144824
(lp22
g4
asI306855097
(lp23
g4
asI18186556
(lp24
g4
asI63060640
(lp25
g4
asI107073602
(lp26
g4
asI72099652
(lp27
g4
asI36208197
(lp28
g4
asI11014982
(lp29
g4
asI20076065
(lp30
g4
asI60746954
(lp31
g4
asI194041548
(lp32
g4
asI138001615
(lp33
g4
asI240175056
(lp34
g4
asI45610833
(lp35
g4
asI211868885
(lp36
g4
asI30441686
(lp37
g4
asI374492631
(lp38
g4
asI16055364
(lp39
g4
asI212553059
(lp40
g4
asI355655633
(lp41
g4
asI160560233
(lp42
g4
asI230554983
(lp43
g4
asI730882933
(lp44
g4
asI541521270
(lp45
g4
as.