(dp1
I136015360
(lp2
cdatetime
datetime
p3
(S'\x07\xdd\x01\x18\x0e\x00\x01\x08p\x9f'
tRp4
asI733340166
(lp5
g4
asI948717589
(lp6
g4
asI553578518
(lp7
g4
asI914950682
(lp8
g4
asI40273436
(lp9
g4
asI36492317
(lp10
g4
asI1005071904
(lp11
g4
asI182790177
(lp12
g4
asI259521542
(lp13
g4
asI743449639
(lp14
g4
asI919999531
(lp15
g4
asI451106864
(lp16
g4
asI290698804
(lp17
g4
asI185258549
(lp18
g4
asI907095096
(lp19
g4
asI610932916
(lp20
g4
asI79892035
(lp21
g4
asI313018438
(lp22
g4
asI897433675
(lp23
g4
asI41208928
(lp24
g4
asI66468283
(lp25
g4
asI364956772
(lp26
g4
asI950818405
(lp27
g4
asI242369127
(lp28
g4
asI475917928
(lp29
g4
asI156379243
(lp30
g4
asI53941356
(lp31
g4
asI373650030
(lp32
g4
asI248381553
(lp33
g4
asI29573746
(lp34
g4
asI314035827
(lp35
g4
asI1029001338
(lp36
g4
asI324593798
(lp37
g4
asI384512622
(lp38
g4
asI53346455
(lp39
g4
asI24057540
(lp40
g4
asI373012081
(lp41
g4
asI106108584
(lp42
g4
asI452602537
(lp43
g4
asI204454573
(lp44
g4
asI304552110
(lp45
g4
asI1053533359
(lp46
g4
asI455866056
(lp47
g4
asI430202547
(lp48
g4
asI53791412
(lp49
g4
asI219050165
(lp50
g4
asI70485174
(lp51
g4
asI298676408
(lp52
g4
asI1003686595
(lp53
g4
asI193050308
(lp54
g4
asI238484165
(lp55
g4
asI557733064
(lp56
g4
asI27480013
(lp57
g4
asI1105337041
(lp58
g4
asI70007492
(lp59
g4
asI947247829
(lp60
g4
asI485178832
(lp61
g4
asI37972213
(lp62
g4
asI202490109
(lp63
g4
asI129308926
(lp64
g4
asI563072259
(lp65
g4
asI111146244
(lp66
g4
asI454422797
(lp67
g4
asI291477775
(lp68
g4
asI126312220
(lp69
g4
asI287397663
(lp70
g4
asI1019959344
(lp71
g4
asI97486299
(lp72
g4
asI9951012
(lp73
g4
asI848289584
(lp74
g4
asI45091126
(lp75
g4
asI848169865
(lp76
g4
asI71675192
(lp77
g4
asI628655417
(lp78
g4
asI1029040442
(lp79
g4
asI66042684
(lp80
g4
asI15460162
(lp81
g4
asI970911044
(lp82
g4
asI27294534
(lp83
g4
asI872525130
(lp84
g4
asI482625361
(lp85
g4
asI94735187
(lp86
g4
asI120036324
(lp87
g4
asI590763870
(lp88
g4
asI952651110
(lp89
g4
asI232420714
(lp90
g4
asI333826923
(lp91
g4
asI1033266548
(lp92
g4
asI17018005
(lp93
g4
asI833880451
(lp94
g4
asI139785094
(lp95
g4
asI285684617
(lp96
g4
asI72884375
(lp97
g4
asI629803406
(lp98
g4
asI260288913
(lp99
g4
asI294009234
(lp100
g4
asI1029109146
(lp101
g4
asI471516060
(lp102
g4
asI206381985
(lp103
g4
asI109237155
(lp104
g4
asI54404011
(lp105
g4
asI402441132
(lp106
g4
asI179170734
(lp107
g4
asI514907062
(lp108
g4
asI961471417
(lp109
g4
asI56254907
(lp110
g4
asI1024538046
(lp111
g4
asI361231809
(lp112
g4
asI22878146
(lp113
g4
asI524148164
(lp114
g4
asI70424993
(lp115
g4
asI609362381
(lp116
g4
asI994727376
(lp117
g4
asI307892689
(lp118
g4
asI739618267
(lp119
g4
asI1011253724
(lp120
g4
asI38374877
(lp121
g4
asI267531236
(lp122
g4
asI84929524
(lp123
g4
asI262488045
(lp124
g4
asI619239919
(lp125
g4
asI1025947304
(lp126
g4
asI626338804
(lp127
g4
asI919586814
(lp128
g4
asI166501881
(lp129
g4
asI342288893
(lp130
g4
asI212995582
(lp131
g4
as.