(dp1
I4488
(lp2
cdatetime
datetime
p3
(S'\x07\xdd\x01\t\x0f\x18\x14\x04\x7f\xb2'
tRp4
asI14772489
(lp5
g4
asI14162574
(lp6
g4
asI20422551
(lp7
g3
(S'\x07\xdd\x01\x18\x0e\x15\x0c\x02\xe8\n'
tRp8
asI509469336
(lp9
g4
asI166480624
(lp10
g4
asI61021218
(lp11
g4
asI918226212
(lp12
g4
asI47317039
(lp13
g4
asI17589685
(lp14
g4
asI12741942
(lp15
g4
asI14307465
(lp16
g4
asI12783032
(lp17
g4
asI1017033788
(lp18
g4
asI346361023
(lp19
g4
asI544278468
(lp20
g4
asI14697158
(lp21
g4
asI854109896
(lp22
g4
asI25515593
(lp23
g3
(S'\x07\xdd\x01\x19\x10\x05\x01\x08\xacm'
tRp24
asI953652938
(lp25
g3
(S'\x07\xdd\x01\x11\r2\x10\x06\xa8\xa7'
tRp26
asI897433675
(lp27
g4
asI88956117
(lp28
g4
asI15557206
(lp29
g4
asI34649687
(lp30
g24
asI94644191
(lp31
g4
asI141295970
(lp32
g4
asI16903607
(lp33
g8
asI346354025
(lp34
g4
asI765548
(lp35
g26
asI25057519
(lp36
g4
asI760048
(lp37
g4
as.