(dp1
I44087686
(lp2
cdatetime
datetime
p3
(S"\x07\xdd\x01\t\n\x0c'\x0b7\xd9"
tRp4
asI73069706
(lp5
g4
asI1074598668
(lp6
g3
(S'\x07\xdd\x01\x11\r2\x10\x06\xa8\xa7'
tRp7
asI80294798
(lp8
g4
asI19834221
(lp9
g4
asI246846992
(lp10
g4
asI16816155
(lp11
g4
asI271393948
(lp12
g4
asI490220574
(lp13
g4
asI131480229
(lp14
g4
asI633352860
(lp15
g4
asI105305259
(lp16
g4
asI975889717
(lp17
g4
asI171496247
(lp18
g4
asI136301916
(lp19
g4
asI14698937
(lp20
g4
asI127173946
(lp21
g4
asI400822078
(lp22
g4
asI153450560
(lp23
g4
asI273617734
(lp24
g4
asI102932811
(lp25
g4
asI15324371
(lp26
g4
asI336927060
(lp27
g4
asI146780245
(lp28
g4
asI142977623
(lp29
g4
asI20689124
(lp30
g4
asI17850459
(lp31
g4
asI217000668
(lp32
g4
asI27635679
(lp33
g4
asI230825060
(lp34
g4
asI23736936
(lp35
g4
asI121479276
(lp36
g4
asI45816557
(lp37
g4
asI233940849
(lp38
g4
asI219277886
(lp39
g4
asI50088186
(lp40
g4
as.