(dp1
I263996416
(lp2
cdatetime
datetime
p3
(S'\x07\xdd\x01\t\x0f\x18\x14\x04\x7f\xb2'
tRp4
asI998004523
(lp5
g3
(S'\x07\xdd\x01\x12\x005\x01\x0eV\x16'
tRp6
asI297148422
(lp7
g4
asI59234311
(lp8
g4
asI24604680
(lp9
g4
asI14452745
(lp10
g4
asI19195914
(lp11
g4
asI36845580
(lp12
g4
asI854452237
(lp13
g4
asI49649678
(lp14
g4
asI47257619
(lp15
g4
asI312741908
(lp16
g4
asI406552598
(lp17
g4
asI18620441
(lp18
g4
asI212590533
(lp19
g4
asI102526298
(lp20
g4
asI17027102
(lp21
g4
asI46155808
(lp22
g4
asI469315617
(lp23
g4
asI235042850
(lp24
g4
asI156409891
(lp25
g4
asI17842212
(lp26
g4
asI14632998
(lp27
g4
asI358906545
(lp28
g4
asI188862505
(lp29
g4
asI16476202
(lp30
g4
asI1425451
(lp31
g4
asI7518252
(lp32
g4
asI229894189
(lp33
g4
asI212408366
(lp34
g4
asI140718127
(lp35
g4
asI276328497
(lp36
g4
asI8425522
(lp37
g4
asI535932595
(lp38
g6
asI16321398
(lp39
g4
asI95815735
(lp40
g4
asI179175481
(lp41
g4
asI304127327
(lp42
g4
asI19566653
(lp43
g4
asI98059957
(lp44
g4
asI14862400
(lp45
g4
asI268478529
(lp46
g4
asI233025603
(lp47
g4
asI119480392
(lp48
g4
asI196915273
(lp49
g4
asI897433675
(lp50
g4
asI25976908
(lp51
g4
asI23967821
(lp52
g4
asI543641678
(lp53
g4
ag6
ag3
(S'\x07\xdd\x01\x18\x0e\x00\x01\x08p\x9f'
tRp54
ag3
(S'\x07\xdd\x01\x18\x0f\x0c/\x0e\xf2)'
tRp55
asI135293008
(lp56
g4
asI29015736
(lp57
g4
asI377159762
(lp58
g4
asI64122963
(lp59
g4
asI21119061
(lp60
g4
asI158064726
(lp61
g4
asI15970392
(lp62
g4
asI12474182
(lp63
g4
asI16201819
(lp64
g4
asI14573660
(lp65
g4
asI246822588
(lp66
g4
asI188072030
(lp67
g4
asI398313568
(lp68
g4
asI232454241
(lp69
g4
asI24821858
(lp70
g4
asI23246523
(lp71
g4
asI241710438
(lp72
g4
asI249737320
(lp73
g4
asI17930345
(lp74
g4
asI53123431
(lp75
g4
asI17375341
(lp76
g4
asI8179822
(lp77
g4
asI15612015
(lp78
g4
asI770246768
(lp79
g4
asI338028657
(lp80
g4
asI227584114
(lp81
g4
asI60971123
(lp82
g4
asI40349812
(lp83
g4
asI205951678
(lp84
g4
asI157452406
(lp85
g4
asI112034921
(lp86
g4
asI35084409
(lp87
g4
asI115577535
(lp88
g4
asI30754941
(lp89
g4
asI94996606
(lp90
g4
asI39802612
(lp91
g6
asI54505600
(lp92
g4
asI246655680
(lp93
g4
asI27246723
(lp94
g4
asI116148246
(lp95
g4
asI454101128
(lp96
g4
asI30883977
(lp97
g4
asI14641290
(lp98
g4
asI426236874
(lp99
g4
asI80066705
(lp100
g4
asI272560275
(lp101
g4
asI16818325
(lp102
g6
asI15228530
(lp103
g4
asI118644761
(lp104
g4
asI15153305
(lp105
g4
asI18982731
(lp106
g4
asI391580578
(lp107
g4
asI25864351
(lp108
g4
asI10248352
(lp109
g4
asI15308961
(lp110
g4
asI18708643
(lp111
g4
asI25792679
(lp112
g4
asI374308699
(lp113
g4
asI125479083
(lp114
g4
asI15112365
(lp115
g4
asI79276209
(lp116
g4
asI17793206
(lp117
g4
asI76067001
(lp118
g4
asI240586398
(lp119
g4
asI398311611
(lp120
g4
asI61821116
(lp121
g4
asI135446717
(lp122
g4
asI42422464
(lp123
g4
asI61094082
(lp124
g4
asI61083844
(lp125
g4
asI12392822
(lp126
g4
asI31613126
(lp127
g4
asI25241799
(lp128
g4
asI135225544
(lp129
g4
asI18925770
(lp130
g4
asI16976076
(lp131
g4
asI188442658
(lp132
g4
asI81440976
(lp133
g4
asI30431441
(lp134
g4
asI59005138
(lp135
g4
asI39278803
(lp136
g4
asI65730773
(lp137
g4
asI194228438
(lp138
g4
asI9015512
(lp139
g4
asI17203236
(lp140
g4
asI879161563
(lp141
g54
asI263659742
(lp142
g4
asI212637923
(lp143
g4
asI116766949
(lp144
g4
asI85362918
(lp145
g4
asI141404392
(lp146
g4
asI55746795
(lp147
g4
asI41724140
(lp148
g4
asI87802093
(lp149
g4
asI308963566
(lp150
g4
asI16183538
(lp151
g4
asI29996977
(lp152
g4
asI12028152
(lp153
g4
asI19802362
(lp154
g4
asI15822207
(lp155
g4
asI156649514
(lp156
g4
asI216445182
(lp157
g4
asI16651307
(lp158
g4
asI62041119
(lp159
g4
asI67007532
(lp160
g4
asI157071405
(lp161
g4
asI291897616
(lp162
g4
asI25633042
(lp163
g4
asI16148867
(lp164
g4
asI11647252
(lp165
g4
asI135790788
(lp166
g4
asI254383892
(lp167
g4
asI193886487
(lp168
g4
asI15786264
(lp169
g4
asI128565636
(lp170
g4
asI220266778
(lp171
g4
asI61780252
(lp172
g4
asI170675930
(lp173
g4
asI986136864
(lp174
g4
asI241672481
(lp175
g4
asI62396706
(lp176
g4
asI220283171
(lp177
g4
asI409039140
(lp178
g4
asI308582790
(lp179
g4
asI180637990
(lp180
g4
asI63672615
(lp181
g4
asI393126184
(lp182
g4
asI294588713
(lp183
g4
asI11106602
(lp184
g4
asI39315755
(lp185
g4
asI23870867
(lp186
g4
asI92356909
(lp187
g4
asI16224559
(lp188
g4
asI400441054
(lp189
g4
asI156766518
(lp190
g4
asI104991033
(lp191
g4
asI19593530
(lp192
g4
asI121278779
(lp193
g4
asI207978814
(lp194
g4
asI85616961
(lp195
g4
asI163498306
(lp196
g4
asI212226371
(lp197
g4
asI367532359
(lp198
g4
ag6
ag54
ag55
asI16148808
(lp199
g4
asI352758089
(lp200
g4
asI289480759
(lp201
g4
asI117879116
(lp202
g4
asI26435917
(lp203
g4
asI15698254
(lp204
g4
asI226353491
(lp205
g4
asI212595249
(lp206
g4
asI707721564
(lp207
g4
asI138803550
(lp208
g4
asI77070137
(lp209
g4
asI246618466
(lp210
g4
asI2074981
(lp211
g4
asI197478759
(lp212
g4
asI114837867
(lp213
g4
asI14924140
(lp214
g4
asI39698834
(lp215
g4
asI55363950
(lp216
g4
asI237920317
(lp217
g4
asI30863729
(lp218
g4
asI426086770
(lp219
g4
asI240354622
(lp220
g4
asI72681844
(lp221
g4
asI144281974
(lp222
g4
asI79810936
(lp223
g4
asI16136571
(lp224
g4
asI230694234
(lp225
g4
asI16824614
(lp226
g4
asI92131711
(lp227
g4
asI14801874
(lp228
g4
asI246044593
(lp229
g4
asI236433795
(lp230
g4
asI298078596
(lp231
g4
asI95025541
(lp232
g4
asI151161222
(lp233
g4
asI93927815
(lp234
g4
asI7577992
(lp235
g4
asI947851657
(lp236
g4
ag6
ag54
ag55
asI338561418
(lp237
g4
asI18936203
(lp238
g4
asI162532430
(lp239
g4
asI139590032
(lp240
g4
asI219013522
(lp241
g4
asI599292995
(lp242
g4
asI204517780
(lp243
g4
asI46547352
(lp244
g4
asI287265177
(lp245
g4
asI730798831
(lp246
g4
asI235406866
(lp247
g4
asI36000157
(lp248
g4
ag6
ag54
ag55
asI18531768
(lp249
g4
asI17795036
(lp250
g4
asI41875872
(lp251
g4
asI809730800
(lp252
g4
asI154677667
(lp253
g4
asI789423439
(lp254
g4
asI14227877
(lp255
g4
asI43426214
(lp256
g4
asI89033127
(lp257
g4
asI35957161
(lp258
g4
asI50141610
(lp259
g4
asI233973376
(lp260
g4
asI112808368
(lp261
g4
asI14737841
(lp262
g4
asI482640784
(lp263
g4
asI131955125
(lp264
g4
asI96776630
(lp265
g4
asI17945015
(lp266
g4
asI46301624
(lp267
g4
asI425329081
(lp268
g4
asI558709178
(lp269
g4
asI48482750
(lp270
g4
asI134578625
(lp271
g4
asI67998146
(lp272
g4
asI16689603
(lp273
g4
asI69519812
(lp274
g4
asI181989829
(lp275
g4
asI14641606
(lp276
g4
asI15698375
(lp277
g4
asI285792713
(lp278
g4
asI305729996
(lp279
g4
asI110641864
(lp280
g4
asI142113231
(lp281
g4
asI165306832
(lp282
g4
asI19042769
(lp283
g4
asI13879762
(lp284
g4
asI105394595
(lp285
g4
asI16910414
(lp286
g4
asI142557656
(lp287
g4
asI24619481
(lp288
g4
asI71119323
(lp289
g4
asI398189306
(lp290
g4
asI210477535
(lp291
g4
asI374871937
(lp292
g4
asI244498913
(lp293
g4
asI366840290
(lp294
g4
asI28569211
(lp295
g4
asI53533156
(lp296
g4
asI396181990
(lp297
g4
asI176236495
(lp298
g4
asI76513769
(lp299
g4
asI278034007
(lp300
g4
asI275225069
(lp301
g4
asI398143983
(lp302
g4
asI15407602
(lp303
g4
asI630371411
(lp304
g4
asI10342142
(lp305
g4
asI327117302
(lp306
g4
asI188625399
(lp307
g4
asI451142139
(lp308
g4
asI142936573
(lp309
g4
asI306848853
(lp310
g4
asI539044352
(lp311
g4
asI25883137
(lp312
g4
asI210926082
(lp313
g4
asI7746052
(lp314
g4
asI34314757
(lp315
g4
asI15270406
(lp316
g4
asI826149384
(lp317
g4
asI18731529
(lp318
g4
asI118149642
(lp319
g4
asI224384547
(lp320
g4
asI62480909
(lp321
g4
asI127377936
(lp322
g4
asI36688401
(lp323
g4
asI295837443
(lp324
g4
asI110746713
(lp325
g4
asI62898712
(lp326
g4
asI16243225
(lp327
g4
asI125932058
(lp328
g4
asI61095323
(lp329
g4
asI24732190
(lp330
g4
asI361422597
(lp331
g4
asI103476656
(lp332
g4
asI43878109
(lp333
g4
asI54714916
(lp334
g4
asI105898533
(lp335
g4
asI52443687
(lp336
g4
asI262117935
(lp337
g4
asI39551537
(lp338
g4
asI16976436
(lp339
g4
asI317442613
(lp340
g4
asI83413558
(lp341
g4
asI208189193
(lp342
g4
asI101788218
(lp343
g4
asI44528189
(lp344
g4
asI144325183
(lp345
g4
asI209409498
(lp346
g4
asI250792513
(lp347
g4
asI143942211
(lp348
g4
asI262960389
(lp349
g4
asI362195525
(lp350
g4
asI277670470
(lp351
g4
asI177822817
(lp352
g4
asI571388343
(lp353
g54
asI40600144
(lp354
g4
asI89255352
(lp355
g4
asI136450644
(lp356
g4
asI26867129
(lp357
g4
asI718543448
(lp358
g54
asI410468953
(lp359
g4
asI52798042
(lp360
g4
asI43392783
(lp361
g4
asI158290524
(lp362
g4
asI162691514
(lp363
g4
asI27647483
(lp364
g4
asI126992992
(lp365
g4
asI225058623
(lp366
g4
asI19313250
(lp367
g4
asI377573987
(lp368
g4
asI135348838
(lp369
g4
asI15741543
(lp370
g4
asI16553076
(lp371
g4
asI11600492
(lp372
g4
asI18661997
(lp373
g4
asI428371345
(lp374
g4
asI328589937
(lp375
g4
asI46763196
(lp376
g4
asI186397303
(lp377
g54
asI361448056
(lp378
g4
asI110788663
(lp379
g4
asI22884986
(lp380
g4
asI452381307
(lp381
g4
asI412936829
(lp382
g4
asI214076031
(lp383
g4
asI15811587
(lp384
g4
asI118760255
(lp385
g4
asI318485125
(lp386
g4
asI609917318
(lp387
g4
asI17788582
(lp388
g4
asI1071475820
(lp389
g4
asI103647682
(lp390
g4
asI18416271
(lp391
g4
asI46494352
(lp392
g4
asI236994328
(lp393
g4
asI19246850
(lp394
g4
asI154698388
(lp395
g4
asI14539415
(lp396
g4
asI32336536
(lp397
g4
asI302357145
(lp398
g4
asI18371227
(lp399
g4
asI60100694
(lp400
g4
asI209306269
(lp401
g4
asI14615199
(lp402
g4
asI24189601
(lp403
g4
asI200921763
(lp404
g4
asI255482533
(lp405
g4
asI274510502
(lp406
g4
asI134845095
(lp407
g4
asI35820200
(lp408
g4
asI15708272
(lp409
g4
asI249229994
(lp410
g4
asI208234951
(lp411
g4
asI950488178
(lp412
g4
asI138162865
(lp413
g4
asI16145074
(lp414
g4
asI222163635
(lp415
g4
asI14954270
(lp416
g4
asI24771254
(lp417
g4
asI105345721
(lp418
g4
asI16669471
(lp419
g4
asI102087358
(lp420
g4
asI24101567
(lp421
g4
asI120853184
(lp422
g4
asI17130180
(lp423
g4
asI14447301
(lp424
g4
asI432919240
(lp425
g4
asI160185804
(lp426
g4
asI581976781
(lp427
g4
asI103961294
(lp428
g4
asI405042637
(lp429
g4
asI294314705
(lp430
g4
asI113709144
(lp431
g4
asI19571417
(lp432
g4
asI95234511
(lp433
g4
asI136700519
(lp434
g4
asI15758046
(lp435
g4
asI263119583
(lp436
g4
asI15809249
(lp437
g4
asI79217378
(lp438
g4
asI143180515
(lp439
g4
asI66722532
(lp440
g4
asI161621109
(lp441
g4
asI72639208
(lp442
g4
asI370435879
(lp443
g4
asI164878235
(lp444
g4
asI360850158
(lp445
g4
asI246852335
(lp446
g4
asI127668976
(lp447
g4
asI397921009
(lp448
g4
asI159347445
(lp449
g4
asI858648361
(lp450
g6
asI260367098
(lp451
g4
asI19199473
(lp452
g4
asI324727550
(lp453
g4
asI277555669
(lp454
g4
asI238355243
(lp455
g4
asI206940932
(lp456
g4
asI511423237
(lp457
g4
asI308583174
(lp458
g4
asI20542593
(lp459
g4
asI150852360
(lp460
g4
asI383310601
(lp461
g4
asI15710989
(lp462
g4
asI21771022
(lp463
g4
asI352760591
(lp464
g4
asI250071826
(lp465
g4
asI910996244
(lp466
g4
asI15429151
(lp467
g4
asI34034457
(lp468
g4
asI433527581
(lp469
g4
asI153843911
(lp470
g4
asI95449887
(lp471
g4
asI15670048
(lp472
g4
asI106769185
(lp473
g4
asI80495394
(lp474
g4
asI370799396
(lp475
g4
asI166273830
(lp476
g4
asI138498855
(lp477
g4
asI216359720
(lp478
g4
asI855456506
(lp479
g4
asI27677483
(lp480
g4
asI16106286
(lp481
g4
asI72566237
(lp482
g4
asI234548017
(lp483
g4
asI260420402
(lp484
g4
asI221590324
(lp485
g4
asI307510071
(lp486
g4
asI292572976
(lp487
g4
asI387687227
(lp488
g4
asI14828349
(lp489
g4
asI185376300
(lp490
g4
asI171780927
(lp491
g4
asI168098625
(lp492
g4
asI51884867
(lp493
g4
asI375892805
(lp494
g4
asI35470151
(lp495
g4
asI161176392
(lp496
g4
asI17787723
(lp497
g4
asI352758604
(lp498
g4
asI80263650
(lp499
g4
asI394530379
(lp500
g4
asI16886925
(lp501
g4
asI45456208
(lp502
g4
asI114056018
(lp503
g4
asI16805347
(lp504
g4
asI50748367
(lp505
g4
asI180066380
(lp506
g4
asI24971746
(lp507
g4
asI30577497
(lp508
g4
asI391203677
(lp509
g4
asI140079968
(lp510
g4
asI15747938
(lp511
g4
asI392434532
(lp512
g4
asI71576422
(lp513
g4
asI137347943
(lp514
g4
asI381842771
(lp515
g4
asI22554087
(lp516
g4
asI292341644
(lp517
g4
asI65986236
(lp518
g4
asI232338290
(lp519
g4
asI152705910
(lp520
g4
asI43023849
(lp521
g4
asI107930490
(lp522
g4
asI44225343
(lp523
g4
asI234304384
(lp524
g4
asI38857603
(lp525
g4
asI43590532
(lp526
g4
asI74668933
(lp527
g4
asI216054150
(lp528
g4
asI102452033
(lp529
g4
asI34311048
(lp530
g4
asI480586636
(lp531
g4
asI120325005
(lp532
g4
asI380466063
(lp533
g4
asI14920592
(lp534
g4
asI215475089
(lp535
g4
asI48210834
(lp536
g4
asI85040019
(lp537
g4
asI358280084
(lp538
g4
asI83237782
(lp539
g4
asI15961241
(lp540
g4
asI249775003
(lp541
g4
asI86102941
(lp542
g4
asI19430213
(lp543
g4
asI36357026
(lp544
g4
asI258565027
(lp545
g4
asI41880484
(lp546
g4
asI95816613
(lp547
g4
asI19713521
(lp548
g4
asI496673704
(lp549
g4
asI264418217
(lp550
g4
asI280361900
(lp551
g4
asI71113645
(lp552
g4
asI358507441
(lp553
g4
asI494267314
(lp554
g4
asI113245107
(lp555
g4
asI187017680
(lp556
g4
asI62889293
(lp557
g4
asI235566007
(lp558
g4
asI295332792
(lp559
g4
asI85835620
(lp560
g4
asI43637692
(lp561
g4
asI18949053
(lp562
g4
asI230243263
(lp563
g4
asI219714496
(lp564
g4
asI15247520
(lp565
g4
asI50710302
(lp566
g4
asI15113155
(lp567
g4
asI16632772
(lp568
g4
asI20532165
(lp569
g4
asI79372449
(lp570
g4
asI750040008
(lp571
g4
asI1072679882
(lp572
g6
asI268356557
(lp573
g4
asI465900365
(lp574
g4
asI122663889
(lp575
g4
asI16493522
(lp576
g4
asI18567331
(lp577
g4
asI1073099732
(lp578
g54
asI335299541
(lp579
g4
asI776965080
(lp580
g4
asI288955354
(lp581
g4
asI12338142
(lp582
g4
asI502146213
(lp583
g4
asI38925280
(lp584
g4
asI16356322
(lp585
g4
asI14314467
(lp586
g4
asI36449255
(lp587
g4
asI70192105
(lp588
g4
asI965551082
(lp589
g4
asI43979756
(lp590
g4
asI384400367
(lp591
g4
asI399086576
(lp592
g4
asI74900468
(lp593
g4
asI56927742
(lp594
g4
asI408400886
(lp595
g4
asI413699064
(lp596
g4
asI17084471
(lp597
g4
asI565452287
(lp598
g4
asI171183100
(lp599
g4
asI19866621
(lp600
g4
asI114797897
(lp601
g4
asI314788864
(lp602
g4
asI277913771
(lp603
g4
asI19031044
(lp604
g4
asI17859598
(lp605
g4
asI126356495
(lp606
g4
asI32138261
(lp607
g4
asI372463559
(lp608
g4
asI196836355
(lp609
g4
asI6120472
(lp610
g4
asI21838873
(lp611
g4
asI15645871
(lp612
g4
asI80330720
(lp613
g4
asI30927902
(lp614
g4
asI75674655
(lp615
g4
asI32420896
(lp616
g4
asI570870817
(lp617
g4
asI40449059
(lp618
g4
asI15369253
(lp619
g4
asI61525030
(lp620
g4
asI129111217
(lp621
g4
asI17759272
(lp622
g4
asI145825503
(lp623
g4
asI106275883
(lp624
g4
asI14674988
(lp625
g4
ag54
ag55
asI126966829
(lp626
g4
asI65453104
(lp627
g4
asI106523700
(lp628
g4
asI88682334
(lp629
g4
asI87497784
(lp630
g4
asI105425978
(lp631
g4
asI6362172
(lp632
g4
asI124595261
(lp633
g4
asI85727739
(lp634
g4
asI80479296
(lp635
g4
asI557069377
(lp636
g4
asI141638722
(lp637
g4
asI281424963
(lp638
g4
asI130645061
(lp639
g4
asI581897287
(lp640
g4
asI567653559
(lp641
g4
asI19589238
(lp642
g6
asI54305853
(lp643
g4
asI14949454
(lp644
g4
asI39554127
(lp645
g4
asI569242704
(lp646
g4
asI413881425
(lp647
g4
asI177777746
(lp648
g4
asI20243539
(lp649
g4
asI309060693
(lp650
g4
asI975109206
(lp651
g4
asI46779481
(lp652
g4
asI102132827
(lp653
g4
asI11299932
(lp654
g4
asI253588666
(lp655
g4
asI18956308
(lp656
g4
asI113093727
(lp657
g4
asI17370208
(lp658
g4
asI17972321
(lp659
g4
asI253727842
(lp660
g4
asI631657659
(lp661
g4
asI287743077
(lp662
g4
asI19382801
(lp663
g4
asI109706344
(lp664
g4
asI340190313
(lp665
g4
asI731350122
(lp666
g4
asI300516459
(lp667
g4
asI255693932
(lp668
g4
asI237090322
(lp669
g4
asI45624432
(lp670
g4
asI21879921
(lp671
g4
asI174787698
(lp672
g4
asI14535527
(lp673
g4
asI17339508
(lp674
g4
asI251229301
(lp675
g4
asI24305513
(lp676
g4
asI16047224
(lp677
g4
asI334673428
(lp678
g4
asI44245089
(lp679
g4
asI75070587
(lp680
g4
asI277869692
(lp681
g4
asI614622334
(lp682
g4
asI355878015
(lp683
g4
asI178822272
(lp684
g4
asI116157569
(lp685
g4
asI906644612
(lp686
g4
asI39289991
(lp687
g4
asI24095880
(lp688
g4
asI198483082
(lp689
g4
asI328306336
(lp690
g4
asI146692767
(lp691
g4
asI22134978
(lp692
g4
asI73794702
(lp693
g4
asI149173391
(lp694
g4
asI341269648
(lp695
g4
asI15938707
(lp696
g4
asI108078228
(lp697
g4
asI22631573
(lp698
g4
asI26795160
(lp699
g4
asI421772441
(lp700
g4
asI127548570
(lp701
g4
asI17136795
(lp702
g4
asI307803059
(lp703
g4
asI352750789
(lp704
g4
asI127442082
(lp705
g4
asI17415331
(lp706
g4
asI9909412
(lp707
g4
asI135303366
(lp708
g4
asI131622055
(lp709
g4
asI160310442
(lp710
g4
asI92798123
(lp711
g4
asI141739183
(lp712
g4
asI164875441
(lp713
g4
asI199652532
(lp714
g4
ag6
ag54
ag55
asI165139639
(lp715
g4
asI94923962
(lp716
g4
asI35048635
(lp717
g4
asI81446076
(lp718
g4
asI399207614
(lp719
g4
asI177284981
(lp720
g4
asI45257863
(lp721
g4
asI15551683
(lp722
g4
asI14232773
(lp723
g4
asI38790192
(lp724
g4
asI18460854
(lp725
g4
asI418897098
(lp726
g4
asI61086924
(lp727
g4
asI19715277
(lp728
g4
asI25084712
(lp729
g4
asI245822672
(lp730
g4
asI252331217
(lp731
g4
asI378784978
(lp732
g4
asI499223763
(lp733
g4
asI70718677
(lp734
g4
asI62899415
(lp735
g4
asI311527972
(lp736
g4
asI400100570
(lp737
g4
asI16153819
(lp738
g4
asI42893178
(lp739
g4
asI42235436
(lp740
g4
asI55985379
(lp741
g4
asI317285604
(lp742
g4
asI18176209
(lp743
g4
asI71314666
(lp744
g4
asI228762860
(lp745
g4
asI14497005
(lp746
g4
asI352750830
(lp747
g4
asI108944626
(lp748
g4
asI114122963
(lp749
g4
asI87033076
(lp750
g4
asI289490166
(lp751
g4
asI280362231
(lp752
g4
asI25810170
(lp753
g4
asI16811259
(lp754
g4
asI25505276
(lp755
g4
asI148651262
(lp756
g4
asI114975487
(lp757
g4
asI335973632
(lp758
g4
asI302152963
(lp759
g4
asI233766148
(lp760
g4
asI44444933
(lp761
g4
asI148196614
(lp762
g4
asI453480321
(lp763
g4
asI19696905
(lp764
g4
asI293481738
(lp765
g4
asI23174412
(lp766
g4
asI123454733
(lp767
g4
asI212454670
(lp768
g4
asI36918543
(lp769
g4
asI292648208
(lp770
g4
asI169741420
(lp771
g4
asI377919363
(lp772
g4
asI17424913
(lp773
g4
asI384210198
(lp774
g4
asI252462359
(lp775
g4
asI17052952
(lp776
g4
asI885200090
(lp777
g4
asI138959749
(lp778
g4
asI61725984
(lp779
g4
asI21054753
(lp780
g4
asI14372059
(lp781
g4
asI314803492
(lp782
g4
asI15895846
(lp783
g4
asI287728935
(lp784
g4
asI248950057
(lp785
g4
asI348892459
(lp786
g4
asI557634860
(lp787
g4
asI153466157
(lp788
g4
asI52428078
(lp789
g4
asI51991431
(lp790
g4
asI69942835
(lp791
g4
asI207254836
(lp792
g4
asI125345079
(lp793
g4
asI23471416
(lp794
g4
asI40544820
(lp795
g4
asI66776379
(lp796
g4
asI322137922
(lp797
g4
asI16934205
(lp798
g4
asI314295614
(lp799
g4
asI73156156
(lp800
g4
asI116897088
(lp801
g4
asI14808307
(lp802
g4
asI201598495
(lp803
g4
asI115060036
(lp804
g4
asI432203077
(lp805
g4
asI204758342
(lp806
g6
asI40729929
(lp807
g4
asI53808458
(lp808
g4
asI323529851
(lp809
g4
asI434414925
(lp810
g4
asI366427847
(lp811
g4
asI64464207
(lp812
g4
asI139137133
(lp813
g4
asI348728658
(lp814
g4
asI26667196
(lp815
g4
asI177642631
(lp816
g4
asI31420709
(lp817
g4
asI132824407
(lp818
g4
asI276854104
(lp819
g4
asI56448346
(lp820
g4
asI93279119
(lp821
g4
asI803298950
(lp822
g4
asI152351290
(lp823
g4
asI37320030
(lp824
g4
asI71960805
(lp825
g4
asI288417121
(lp826
g4
asI14642530
(lp827
g4
asI115454182
(lp828
g4
asI834594150
(lp829
g4
asI170018151
(lp830
g4
asI48528745
(lp831
g4
asI234181995
(lp832
g4
asI150167585
(lp833
g4
asI17610097
(lp834
g4
asI583116147
(lp835
g4
asI59004276
(lp836
g4
asI140877896
(lp837
g4
asI6288762
(lp838
g4
asI439740225
(lp839
g4
asI60487037
(lp840
g4
asI42300159
(lp841
g54
asI76424768
(lp842
g4
asI171780331
(lp843
g4
asI86807943
(lp844
g4
asI236422790
(lp845
g4
asI336782731
(lp846
g4
asI193297804
(lp847
g4
asI277554574
(lp848
g4
asI21984657
(lp849
g4
asI17044882
(lp850
g4
asI113245587
(lp851
g4
asI16278934
(lp852
g4
asI137923992
(lp853
g4
asI35782043
(lp854
g4
asI22490524
(lp855
g4
asI239234461
(lp856
g4
asI167255454
(lp857
g4
asI223501727
(lp858
g4
asI345544096
(lp859
g4
asI155379105
(lp860
g4
asI516533666
(lp861
g4
asI40796059
(lp862
g4
asI243013028
(lp863
g4
asI334779813
(lp864
g4
asI257152424
(lp865
g4
asI119856553
(lp866
g4
asI229944903
(lp867
g4
asI197584300
(lp868
g4
asI82242991
(lp869
g4
asI18752944
(lp870
g4
asI61871537
(lp871
g4
asI17241331
(lp872
g4
asI53038516
(lp873
g4
asI162676150
(lp874
g4
asI246855096
(lp875
g4
asI13237492
(lp876
g4
asI355710394
(lp877
g4
asI17635231
(lp878
g4
asI114748861
(lp879
g4
asI228283623
(lp880
g4
asI604685761
(lp881
g4
asI17131473
(lp882
g4
asI167803396
(lp883
g4
asI15164662
(lp884
g4
asI128806863
(lp885
g4
asI104783303
(lp886
g4
asI116921800
(lp887
g4
asI17769929
(lp888
g4
asI14040522
(lp889
g4
asI279385547
(lp890
g4
asI23274956
(lp891
g4
asI168674765
(lp892
g4
asI110501326
(lp893
g4
asI28302705
(lp894
g4
asI74162370
(lp895
g4
asI207110040
(lp896
g4
asI428423339
(lp897
g4
asI11310552
(lp898
g4
asI237811162
(lp899
g6
asI14382508
(lp900
g4
asI314324444
(lp901
g4
asI275582135
(lp902
g4
asI65322462
(lp903
g4
asI14188969
(lp904
g4
asI38931938
(lp905
g4
asI15400187
(lp906
g54
asI29650405
(lp907
g4
asI26107042
(lp908
g4
asI7896552
(lp909
g4
asI107806185
(lp910
g4
asI74335722
(lp911
g4
asI153755118
(lp912
g4
asI126754289
(lp913
g4
asI264838642
(lp914
g4
asI308667892
(lp915
g4
asI61462007
(lp916
g4
asI238828306
(lp917
g4
asI65721851
(lp918
g4
asI30230012
(lp919
g4
asI23313136
(lp920
g4
asI159253582
(lp921
g4
asI89187839
(lp922
g4
asI296762880
(lp923
g4
asI21317121
(lp924
g4
asI424234424
(lp925
g4
asI52454921
(lp926
g4
asI26355211
(lp927
g4
asI27010573
(lp928
g4
asI1040174610
(lp929
g4
asI257762563
(lp930
g4
asI113509908
(lp931
g4
asI159473175
(lp932
g4
asI37557785
(lp933
g4
asI875550234
(lp934
g4
asI341765660
(lp935
g4
asI43746845
(lp936
g4
asI41956895
(lp937
g4
asI182062624
(lp938
g4
asI14571041
(lp939
g4
asI19447331
(lp940
g4
asI221799972
(lp941
g4
asI96263719
(lp942
g4
asI29344853
(lp943
g4
asI203032105
(lp944
g4
asI200068652
(lp945
g4
asI554343981
(lp946
g4
asI33629743
(lp947
g4
asI504345583
(lp948
g6
asI42923569
(lp949
g4
asI320458290
(lp950
g4
asI21201843
(lp951
g4
asI126412041
(lp952
g4
asI373279782
(lp953
g4
asI113165884
(lp954
g4
asI21065280
(lp955
g4
asI386369093
(lp956
g4
asI76471879
(lp957
g4
asI119303754
(lp958
g4
asI19310155
(lp959
g4
asI18593357
(lp960
g4
asI821491279
(lp961
g4
asI162063952
(lp962
g4
asI196652625
(lp963
g4
asI17638994
(lp964
g4
asI182039139
(lp965
g4
asI242787925
(lp966
g4
asI175851094
(lp967
g4
asI72724055
(lp968
g4
asI139902553
(lp969
g4
asI18177627
(lp970
g4
asI17788508
(lp971
g4
asI357211743
(lp972
g4
ag6
ag54
ag55
asI9810192
(lp973
g4
asI37279141
(lp974
g4
asI161711716
(lp975
g4
asI17014374
(lp976
g4
asI281013521
(lp977
g4
asI15246951
(lp978
g4
asI22638189
(lp979
g4
asI43314109
(lp980
g4
asI153009777
(lp981
g4
asI20930162
(lp982
g4
asI42707220
(lp983
g4
asI91184762
(lp984
g4
asI15727551
(lp985
g4
asI53784189
(lp986
g4
asI259554942
(lp987
g4
asI54689407
(lp988
g4
asI71280256
(lp989
g4
asI132162367
(lp990
g4
asI480511414
(lp991
g4
asI43221627
(lp992
g4
asI197498724
(lp993
g4
asI544411270
(lp994
g4
asI15857858
(lp995
g4
asI22288009
(lp996
g4
asI94152983
(lp997
g4
asI422899341
(lp998
g4
asI90203791
(lp999
g4
asI37703960
(lp1000
g4
asI44365763
(lp1001
g6
asI14236479
(lp1002
g4
asI148457109
(lp1003
g4
asI264296086
(lp1004
g4
asI82681495
(lp1005
g4
asI251405904
(lp1006
g4
asI395671193
(lp1007
g4
asI53489306
(lp1008
g4
asI79773295
(lp1009
g4
asI58478238
(lp1010
g4
asI274054815
(lp1011
g4
asI183287456
(lp1012
g4
asI237612705
(lp1013
g4
asI62553762
(lp1014
g4
asI22486692
(lp1015
g4
asI278709926
(lp1016
g4
asI17825447
(lp1017
g4
asI122158761
(lp1018
g4
asI297041579
(lp1019
g4
asI379848365
(lp1020
g54
asI158555822
(lp1021
g4
asI39433903
(lp1022
g54
asI18166728
(lp1023
g4
asI15668915
(lp1024
g4
asI23467701
(lp1025
g4
asI62441142
(lp1026
g4
asI46990818
(lp1027
g4
asI22042296
(lp1028
g4
asI387524281
(lp1029
g54
asI33101498
(lp1030
g4
asI19989791
(lp1031
g4
asI15719559
(lp1032
g4
asI608374461
(lp1033
g4
asI333250238
(lp1034
g4
asI24354495
(lp1035
g4
asI161959618
(lp1036
g4
asI16068293
(lp1037
g4
asI22336799
(lp1038
g4
asI106554657
(lp1039
g4
asI211240648
(lp1040
g4
asI7390842
(lp1041
g4
asI38418124
(lp1042
g4
asI30941474
(lp1043
g4
asI136369699
(lp1044
g4
asI175514536
(lp1045
g4
asI11435732
(lp1046
g4
asI116484046
(lp1047
g4
asI211754710
(lp1048
g4
asI459656921
(lp1049
g4
asI206362330
(lp1050
g4
asI17721051
(lp1051
g4
asI6323932
(lp1052
g4
asI798588637
(lp1053
g4
asI156591838
(lp1054
g4
asI102455007
(lp1055
g4
asI153470689
(lp1056
g4
asI170498683
(lp1057
g4
asI63818022
(lp1058
g4
asI231458534
(lp1059
g4
asI54779857
(lp1060
g4
asI1071953640
(lp1061
g6
asI303468265
(lp1062
g4
asI34809578
(lp1063
g4
asI42282066
(lp1064
g4
asI15632108
(lp1065
g4
asI96661229
(lp1066
g4
asI82687613
(lp1067
g4
asI74981672
(lp1068
g4
asI364122067
(lp1069
g4
asI277692148
(lp1070
g4
asI96026358
(lp1071
g4
asI108181240
(lp1072
g4
asI19082879
(lp1073
g4
asI44234494
(lp1074
g4
asI98767427
(lp1075
g4
asI79544064
(lp1076
g4
asI70860545
(lp1077
g4
asI26185681
(lp1078
g4
asI46642947
(lp1079
g4
asI95244036
(lp1080
g4
asI62926597
(lp1081
g4
asI49204865
(lp1082
g4
asI142092041
(lp1083
g4
asI119066378
(lp1084
g4
asI62366327
(lp1085
g4
asI20414217
(lp1086
g4
asI298622733
(lp1087
g4
asI228816173
(lp1088
g4
asI52592400
(lp1089
g4
asI358487825
(lp1090
g4
asI46661394
(lp1091
g4
asI186558228
(lp1092
g4
asI485877622
(lp1093
g4
asI165591549
(lp1094
g4
asI85596964
(lp1095
g4
asI72075032
(lp1096
g4
asI126957339
(lp1097
g4
asI390868766
(lp1098
g4
asI36739717
(lp1099
g4
asI308651808
(lp1100
g4
asI18234672
(lp1101
g4
asI253051526
(lp1102
g4
asI91219750
(lp1103
g4
asI35476723
(lp1104
g4
asI277692187
(lp1105
g4
asI139855836
(lp1106
g4
asI374595151
(lp1107
g4
asI34492203
(lp1108
g4
asI215072885
(lp1109
g4
asI239634223
(lp1110
g4
asI46878512
(lp1111
g4
asI16721203
(lp1112
g4
asI21200319
(lp1113
g4
asI133834939
(lp1114
g4
asI146581304
(lp1115
g4
asI15949625
(lp1116
g4
asI11294522
(lp1117
g4
asI14871687
(lp1118
g4
asI284041022
(lp1119
g4
asI93310783
(lp1120
g4
asI55715648
(lp1121
g4
asI18919233
(lp1122
g4
asI40556354
(lp1123
g4
asI13396002
(lp1124
g4
asI50833304
(lp1125
g4
asI57259845
(lp1126
g4
asI23848774
(lp1127
g4
asI908998471
(lp1128
g4
asI15024762
(lp1129
g4
asI156738871
(lp1130
g4
asI22310732
(lp1131
g4
asI126832610
(lp1132
g4
asI34729232
(lp1133
g4
asI151127693
(lp1134
g4
asI254429008
(lp1135
g4
asI236173137
(lp1136
g4
asI16258898
(lp1137
g4
asI38289726
(lp1138
g4
asI256720724
(lp1139
g4
asI442294244
(lp1140
g4
asI14568079
(lp1141
g4
asI223866600
(lp1142
g4
asI47766532
(lp1143
g4
asI22042463
(lp1144
g4
asI138240656
(lp1145
g4
asI157797589
(lp1146
g4
asI229521251
(lp1147
g4
asI504207204
(lp1148
g4
asI52918118
(lp1149
g4
asI66492263
(lp1150
g4
asI86050664
(lp1151
g4
asI175638377
(lp1152
g4
asI63268714
(lp1153
g4
asI16407527
(lp1154
g4
asI259422061
(lp1155
g4
asI179125565
(lp1156
g4
asI303404912
(lp1157
g4
asI514289057
(lp1158
g4
asI79181682
(lp1159
g4
asI95428731
(lp1160
g4
asI158070644
(lp1161
g4
asI423519550
(lp1162
g4
asI270966646
(lp1163
g4
asI432164841
(lp1164
g4
asI23797396
(lp1165
g4
asI142761850
(lp1166
g4
asI185616252
(lp1167
g4
asI151558013
(lp1168
g4
asI78360320
(lp1169
g4
asI16037760
(lp1170
g4
asI696193
(lp1171
g4
asI19466115
(lp1172
g4
asI310912900
(lp1173
g4
asI103554949
(lp1174
g4
asI211878209
(lp1175
g4
asI83783560
(lp1176
g4
asI56830956
(lp1177
g4
asI151521162
(lp1178
g4
asI107126668
(lp1179
g4
asI61585293
(lp1180
g4
asI54601825
(lp1181
g4
asI43573135
(lp1182
g4
asI39941033
(lp1183
g4
asI116664101
(lp1184
g4
ag6
ag54
ag55
asI236699542
(lp1185
g4
asI16701447
(lp1186
g4
asI21791978
(lp1187
g4
asI477679557
(lp1188
g4
asI824792047
(lp1189
g4
asI14307228
(lp1190
g54
asI41856927
(lp1191
g4
asI424121328
(lp1192
g4
asI151598813
(lp1193
g4
asI372354979
(lp1194
g6
asI185874823
(lp1195
g4
asI415367077
(lp1196
g4
asI16234406
(lp1197
g4
asI90427303
(lp1198
g4
asI21045216
(lp1199
g4
asI888260935
(lp1200
g4
asI87588982
(lp1201
g4
asI54575021
(lp1202
g4
asI230569557
(lp1203
g4
ag54
ag55
asI132394928
(lp1204
g4
asI213172552
(lp1205
g4
asI35325197
(lp1206
g4
asI20096670
(lp1207
g4
asI47032649
(lp1208
g4
asI511825849
(lp1209
g4
asI117823418
(lp1210
g4
asI16884383
(lp1211
g4
asI117252030
(lp1212
g4
asI15110079
(lp1213
g4
asI521932736
(lp1214
g4
asI19220417
(lp1215
g4
asI947328962
(lp1216
g4
asI46483395
(lp1217
g4
asI293724101
(lp1218
g4
asI103616455
(lp1219
g4
asI140036040
(lp1220
g4
asI1021981004
(lp1221
g4
asI159201226
(lp1222
g4
asI211910603
(lp1223
g4
asI228925388
(lp1224
g4
asI313591758
(lp1225
g54
asI17622991
(lp1226
g4
asI120577681
(lp1227
g4
asI23847928
(lp1228
g4
asI50008018
(lp1229
g4
asI14833619
(lp1230
g4
asI603147599
(lp1231
g4
asI16197591
(lp1232
g4
asI229103576
(lp1233
g4
asI308099874
(lp1234
g4
asI231765980
(lp1235
g4
asI377481181
(lp1236
g54
asI17876801
(lp1237
g4
asI89890784
(lp1238
g4
asI103105872
(lp1239
g4
asI35475055
(lp1240
g4
asI199399415
(lp1241
g4
asI163995620
(lp1242
g4
asI97878049
(lp1243
g4
asI237641703
(lp1244
g4
asI303977941
(lp1245
g4
asI16844777
(lp1246
g4
asI8904682
(lp1247
g4
asI19396588
(lp1248
g4
asI453169136
(lp1249
g4
asI21690938
(lp1250
g4
asI636016623
(lp1251
g4
asI346333168
(lp1252
g4
asI140883283
(lp1253
g4
asI29542388
(lp1254
g4
asI292618229
(lp1255
g4
asI309223414
(lp1256
g4
asI209967785
(lp1257
g4
asI39895793
(lp1258
g4
asI362685430
(lp1259
g4
asI149131259
(lp1260
g4
asI147897002
(lp1261
g4
asI217568271
(lp1262
g4
asI263494887
(lp1263
g4
as.