(dp1
I75112448
(lp2
cdatetime
datetime
p3
(S'\x07\xdd\x01\t\x0f\x18\x14\x04\x7f\xb2'
tRp4
asI96196608
(lp5
g3
(S'\x07\xdd\x01\x12\x005\x01\x0eV\x16'
tRp6
ag3
(S'\x07\xdd\x01\x18\x0e\x15\x0c\x02\xe8\n'
tRp7
ag3
(S'\x07\xdd\x01\x19\x10\x05\x01\x08\xacm'
tRp8
asI998313992
(lp9
g4
asI155029516
(lp10
g6
asI512489485
(lp11
g7
asI860735503
(lp12
g4
asI528693271
(lp13
g4
asI334635032
(lp14
g8
asI165017633
(lp15
g4
asI304416802
(lp16
g4
asI96811071
(lp17
g7
asI701651016
(lp18
g4
asI897433675
(lp19
g4
asI1025893045
(lp20
g6
asI370788452
(lp21
g4
asI383228005
(lp22
g4
asI16814727
(lp23
g4
asI988317806
(lp24
g6
asI502581360
(lp25
g4
asI491358322
(lp26
g4
asI1072478329
(lp27
g4
asI625506434
(lp28
g4
asI379783319
(lp29
g4
asI406829217
(lp30
g4
asI496588962
(lp31
g4
asI829794475
(lp32
g4
asI759916717
(lp33
g4
asI69828790
(lp34
g4
asI27044023
(lp35
g4
asI298053817
(lp36
g4
asI489222331
(lp37
g4
asI48900286
(lp38
g4
asI95590606
(lp39
g7
asI957915344
(lp40
g4
asI394377430
(lp41
g4
asI225010383
(lp42
g4
asI869292259
(lp43
g4
asI19132648
(lp44
g6
asI25153770
(lp45
g7
asI254136556
(lp46
g4
asI203534706
(lp47
g4
asI260587759
(lp48
g4
asI317378810
(lp49
g4
ag6
ag7
ag8
asI937189627
(lp50
g4
asI224827646
(lp51
g6
ag7
ag8
asI395620609
(lp52
g4
asI782840066
(lp53
g4
asI931660038
(lp54
g4
asI537561358
(lp55
g4
asI110315798
(lp56
g6
asI444940567
(lp57
g7
asI15839517
(lp58
g4
asI8331552
(lp59
g7
asI465606946
(lp60
g4
asI954366259
(lp61
g4
ag6
ag7
ag8
asI17922363
(lp62
g7
asI390392129
(lp63
g4
ag7
ag8
asI119105858
(lp64
g4
asI76996933
(lp65
g6
asI401070414
(lp66
g8
asI536359247
(lp67
g4
asI979421539
(lp68
g4
asI226658666
(lp69
g4
asI107960690
(lp70
g7
asI570044792
(lp71
g4
ag7
ag8
asI601293179
(lp72
g4
asI33057154
(lp73
g4
ag7
ag8
asI592501136
(lp74
g4
asI631249301
(lp75
g4
asI71582105
(lp76
g4
asI483473818
(lp77
g4
asI1011636636
(lp78
g4
asI15954337
(lp79
g6
asI145848739
(lp80
g4
asI164005960
(lp81
g4
asI1040370115
(lp82
g4
asI104692165
(lp83
g4
asI484915659
(lp84
g4
asI602233594
(lp85
g4
asI426543583
(lp86
g6
asI528945637
(lp87
g4
asI598047207
(lp88
g4
asI164295149
(lp89
g4
asI739090927
(lp90
g4
asI1013512698
(lp91
g4
asI319349245
(lp92
g4
asI339948031
(lp93
g7
asI840878592
(lp94
g4
asI678403
(lp95
g6
asI1012969992
(lp96
g4
ag6
ag7
ag8
asI339552778
(lp97
g8
asI48497172
(lp98
g4
asI90776094
(lp99
g4
asI766128674
(lp100
g4
asI191108187
(lp101
g4
ag7
ag8
asI22041124
(lp102
g4
asI551055914
(lp103
g4
asI255519276
(lp104
g6
asI872229422
(lp105
g6
asI244746802
(lp106
g4
asI24336948
(lp107
g4
asI359084598
(lp108
g4
asI322830904
(lp109
g6
asI541061691
(lp110
g4
asI52017728
(lp111
g4
asI119802433
(lp112
g7
asI122122818
(lp113
g4
asI276816453
(lp114
g4
asI293739081
(lp115
g4
asI109079118
(lp116
g4
asI99113551
(lp117
g4
ag6
ag7
ag8
asI525306452
(lp118
g4
asI478945877
(lp119
g4
asI370689465
(lp120
g4
asI480686680
(lp121
g4
asI708696673
(lp122
g8
asI980554339
(lp123
g4
asI213467750
(lp124
g8
asI235178600
(lp125
g4
ag6
ag7
ag8
asI861936236
(lp126
g4
asI88552210
(lp127
g4
asI845496084
(lp128
g4
asI543527701
(lp129
g6
asI515009155
(lp130
g4
asI993487494
(lp131
g6
asI907317895
(lp132
g4
asI529236616
(lp133
g4
asI843063950
(lp134
g4
asI16560794
(lp135
g6
asI22667942
(lp136
g6
asI631730865
(lp137
g4
asI367764149
(lp138
g4
asI58999483
(lp139
g4
asI40923837
(lp140
g4
asI260022978
(lp141
g7
asI22770373
(lp142
g4
asI1040755489
(lp143
g4
asI88816329
(lp144
g4
asI65577676
(lp145
g4
asI60764879
(lp146
g4
asI252190500
(lp147
g4
asI495338204
(lp148
g4
asI535767796
(lp149
g4
asI543824633
(lp150
g6
ag7
ag8
asI177728250
(lp151
g4
asI925446919
(lp152
g4
asI313756426
(lp153
g4
ag6
ag7
ag8
asI27181842
(lp154
g6
asI484047637
(lp155
g4
asI42308375
(lp156
g4
asI125440796
(lp157
g4
asI323867425
(lp158
g6
asI22819623
(lp159
g6
asI196324828
(lp160
g7
asI1010438970
(lp161
g4
asI283687745
(lp162
g6
asI344128331
(lp163
g4
ag6
ag7
ag8
asI43174732
(lp164
g7
asI10373972
(lp165
g4
asI398746460
(lp166
g4
asI473484125
(lp167
g4
asI318432094
(lp168
g4
asI26518374
(lp169
g4
asI14463848
(lp170
g4
asI259056490
(lp171
g7
asI14805867
(lp172
g4
asI16388972
(lp173
g4
asI978463597
(lp174
g4
asI808098679
(lp175
g4
asI14863229
(lp176
g4
asI352263040
(lp177
g4
asI27249542
(lp178
g7
asI41689992
(lp179
g4
ag6
ag7
ag8
asI34342722
(lp180
g8
asI554730384
(lp181
g4
ag6
ag7
ag8
asI131324829
(lp182
g4
asI109237155
(lp183
g4
asI69875528
(lp184
g4
ag6
ag7
ag8
asI739902391
(lp185
g4
asI398791609
(lp186
g4
ag8
asI234834877
(lp187
g4
asI508781513
(lp188
g4
ag7
ag8
asI773721043
(lp189
g4
asI436218845
(lp190
g4
asI140334048
(lp191
g4
asI407096289
(lp192
g4
asI563784687
(lp193
g4
asI524850161
(lp194
g4
asI634543098
(lp195
g4
asI11093162
(lp196
g4
asI122264574
(lp197
g6
asI278096906
(lp198
g4
asI543462433
(lp199
g4
asI83764261
(lp200
g8
asI631194666
(lp201
g7
asI95181320
(lp202
g4
asI268360756
(lp203
g4
asI75742264
(lp204
g4
asI184908870
(lp205
g4
asI1016278093
(lp206
g4
asI366322768
(lp207
g4
asI351038546
(lp208
g4
asI154647635
(lp209
g4
asI1004639318
(lp210
g4
asI348787803
(lp211
g4
asI949707872
(lp212
g4
asI1040684131
(lp213
g4
asI520772712
(lp214
g4
asI628792428
(lp215
g4
ag6
ag7
asI18539631
(lp216
g4
asI78957680
(lp217
g4
asI425870454
(lp218
g7
asI720119658
(lp219
g4
asI44627073
(lp220
g4
asI1006517401
(lp221
g4
asI300604571
(lp222
g4
asI17142944
(lp223
g6
ag7
ag8
asI185345185
(lp224
g4
asI747981986
(lp225
g4
asI114250917
(lp226
g4
asI148505770
(lp227
g7
ag8
asI1003328683
(lp228
g7
asI390170141
(lp229
g4
asI609531058
(lp230
g4
asI1023296695
(lp231
g4
asI628251837
(lp232
g6
ag7
ag8
asI226428094
(lp233
g4
asI193318094
(lp234
g7
asI623123664
(lp235
g4
asI50087121
(lp236
g4
asI301030629
(lp237
g4
asI142363879
(lp238
g4
asI426300648
(lp239
g4
asI156484852
(lp240
g4
asI287757558
(lp241
g4
asI492217594
(lp242
g4
ag6
ag7
ag8
asI31407357
(lp243
g4
asI20860158
(lp244
g4
asI350551296
(lp245
g4
asI89769227
(lp246
g4
ag6
ag7
ag8
asI14884114
(lp247
g4
asI314408213
(lp248
g4
ag6
ag7
ag8
asI104832279
(lp249
g4
asI271738144
(lp250
g4
asI774618404
(lp251
g4
asI463031600
(lp252
g4
asI48289076
(lp253
g4
asI227734838
(lp254
g4
asI99427640
(lp255
g4
asI319339844
(lp256
g4
ag6
ag7
ag8
asI90234181
(lp257
g4
asI555447628
(lp258
g4
asI393456975
(lp259
g6
asI579888464
(lp260
g7
asI45378917
(lp261
g7
asI593552765
(lp262
g4
asI92016010
(lp263
g4
asI17524108
(lp264
g4
asI881517967
(lp265
g4
asI19996051
(lp266
g4
asI309007767
(lp267
g4
asI19031450
(lp268
g4
asI401211631
(lp269
g4
asI541908382
(lp270
g4
ag6
ag7
ag8
asI869510568
(lp271
g4
asI586683822
(lp272
g7
asI334112176
(lp273
g4
asI394200500
(lp274
g4
asI420566454
(lp275
g7
asI19996087
(lp276
g4
asI415991028
(lp277
g4
asI18060747
(lp278
g4
asI365118768
(lp279
g4
ag7
ag8
asI475432404
(lp280
g4
ag6
ag7
ag8
asI16580053
(lp281
g4
asI16653788
(lp282
g4
asI98737633
(lp283
g4
asI516824550
(lp284
g4
ag6
ag7
ag8
asI414254568
(lp285
g4
asI25165290
(lp286
g4
asI817499628
(lp287
g4
asI16600574
(lp288
g4
asI45891073
(lp289
g4
ag6
ag7
ag8
asI15863304
(lp290
g7
asI418786826
(lp291
g6
asI35741196
(lp292
g4
asI410361358
(lp293
g4
asI492449297
(lp294
g4
asI787750423
(lp295
g4
asI282375706
(lp296
g4
asI473353757
(lp297
g4
asI943050276
(lp298
g4
asI967847472
(lp299
g4
asI107384386
(lp300
g6
asI949354051
(lp301
g7
asI962858564
(lp302
g4
asI86220368
(lp303
g4
asI200912465
(lp304
g4
asI1018107482
(lp305
g4
asI285685339
(lp306
g4
asI470402660
(lp307
g6
ag7
ag8
asI320960101
(lp308
g4
ag6
ag7
ag8
asI39302767
(lp309
g4
ag6
ag7
ag8
asI10104432
(lp310
g4
ag6
ag7
ag8
asI7806602
(lp311
g6
asI94785815
(lp312
g4
asI112467598
(lp313
g6
ag7
ag8
asI174726800
(lp314
g4
asI498724504
(lp315
g4
asI380593820
(lp316
g4
asI528592556
(lp317
g4
asI6911662
(lp318
g4
asI80682671
(lp319
g4
asI801601214
(lp320
g6
asI40224452
(lp321
g4
asI26701511
(lp322
g4
asI956741323
(lp323
g4
asI135964369
(lp324
g4
asI567439059
(lp325
g4
asI155918040
(lp326
g6
ag7
ag8
asI394374436
(lp327
g4
asI341882587
(lp328
g4
ag6
ag7
ag8
asI30971612
(lp329
g4
asI710291166
(lp330
g7
asI264980191
(lp331
g4
asI8132322
(lp332
g6
asI33042155
(lp333
g8
asI35593967
(lp334
g4
ag6
ag7
ag8
asI248352501
(lp335
g4
asI34629371
(lp336
g7
asI16688904
(lp337
g4
asI154326794
(lp338
g7
asI97019863
(lp339
g4
ag7
ag8
asI78081806
(lp340
g4
asI106835731
(lp341
g4
asI526464788
(lp342
g7
asI953866016
(lp343
g4
asI250631969
(lp344
g4
asI406570787
(lp345
g4
ag7
ag8
asI9951012
(lp346
g4
asI137856806
(lp347
g4
asI348714795
(lp348
g4
ag6
ag7
ag8
asI808800049
(lp349
g4
asI105787188
(lp350
g4
asI620617695
(lp351
g4
asI847263554
(lp352
g4
ag6
ag7
ag8
asI23699269
(lp353
g4
asI494341960
(lp354
g4
ag8
asI345225036
(lp355
g4
asI457320286
(lp356
g7
asI541548385
(lp357
g4
asI16787430
(lp358
g4
asI312387434
(lp359
g4
asI466560877
(lp360
g7
asI35721076
(lp361
g6
asI36753271
(lp362
g4
asI726892424
(lp363
g4
ag6
ag7
ag8
asI733446025
(lp364
g4
asI982925198
(lp365
g4
asI1071335749
(lp366
g6
ag7
ag8
asI979402656
(lp367
g7
asI548378529
(lp368
g4
asI557234082
(lp369
g4
asI369502115
(lp370
g4
asI22833062
(lp371
g4
asI63164339
(lp372
g4
asI629575609
(lp373
g4
asI1038901178
(lp374
g4
ag6
ag7
ag8
asI15691718
(lp375
g4
asI287285192
(lp376
g7
asI537352148
(lp377
g4
asI280821719
(lp378
g4
ag6
ag7
ag8
asI739293
(lp379
g4
asI822403039
(lp380
g4
asI376302246
(lp381
g4
ag6
ag7
ag8
asI23478246
(lp382
g4
asI94853098
(lp383
g4
asI27873266
(lp384
g4
asI124538868
(lp385
g4
asI425959415
(lp386
g4
asI211800056
(lp387
g4
asI48572412
(lp388
g4
as.